ARM GAS  /tmp/ccaJEHVr.s 			page 1


   1              		.cpu cortex-m4
   2              		.arch armv7e-m
   3              		.fpu fpv4-sp-d16
   4              		.eabi_attribute 27, 1
   5              		.eabi_attribute 28, 1
   6              		.eabi_attribute 23, 1
   7              		.eabi_attribute 24, 1
   8              		.eabi_attribute 25, 1
   9              		.eabi_attribute 26, 1
  10              		.eabi_attribute 30, 2
  11              		.eabi_attribute 34, 1
  12              		.eabi_attribute 18, 4
  13              		.file	"stm32f4xx_hal_gpio.c"
  14              		.text
  15              		.section	.text.HAL_GPIO_Init,"ax",%progbits
  16              		.align	1
  17              		.p2align 2,,3
  18              		.global	HAL_GPIO_Init
  19              		.syntax unified
  20              		.thumb
  21              		.thumb_func
  23              	HAL_GPIO_Init:
  24              		@ args = 0, pretend = 0, frame = 16
  25              		@ frame_needed = 0, uses_anonymous_args = 0
  26 0000 2DE9F04F 		push	{r4, r5, r6, r7, r8, r9, r10, fp, lr}
  27 0004 AC4A     		ldr	r2, .L67
  28 0006 0B68     		ldr	r3, [r1]
  29 0008 9042     		cmp	r0, r2
  30 000a 85B0     		sub	sp, sp, #20
  31 000c 4FF00002 		mov	r2, #0
  32 0010 4FF0010B 		mov	fp, #1
  33 0014 00F0DA80 		beq	.L58
  34 0018 DFF8ACE2 		ldr	lr, .L67+16
  35 001c 8A46     		mov	r10, r1
  36 001e 03E0     		b	.L2
  37              	.L20:
  38 0020 0132     		adds	r2, r2, #1
  39 0022 102A     		cmp	r2, #16
  40 0024 00F0A680 		beq	.L1
  41              	.L2:
  42 0028 0BFA02F1 		lsl	r1, fp, r2
  43 002c 01EA0306 		and	r6, r1, r3
  44 0030 9943     		bics	r1, r1, r3
  45 0032 F5D1     		bne	.L20
  46 0034 DAF80440 		ldr	r4, [r10, #4]
  47 0038 04F0030C 		and	ip, r4, #3
  48 003c 5100     		lsls	r1, r2, #1
  49 003e 0325     		movs	r5, #3
  50 0040 0CF1FF37 		add	r7, ip, #-1
  51 0044 8D40     		lsls	r5, r5, r1
  52 0046 012F     		cmp	r7, #1
  53 0048 6FEA0505 		mvn	r5, r5
  54 004c 58D9     		bls	.L59
  55 004e BCF1030F 		cmp	ip, #3
  56 0052 08D0     		beq	.L23
  57 0054 C768     		ldr	r7, [r0, #12]
  58 0056 07EA0508 		and	r8, r7, r5
ARM GAS  /tmp/ccaJEHVr.s 			page 2


  59 005a DAF80870 		ldr	r7, [r10, #8]
  60 005e 8F40     		lsls	r7, r7, r1
  61 0060 47EA0807 		orr	r7, r7, r8
  62 0064 C760     		str	r7, [r0, #12]
  63              	.L23:
  64 0066 0768     		ldr	r7, [r0]
  65 0068 0CFA01F1 		lsl	r1, ip, r1
  66 006c 3D40     		ands	r5, r5, r7
  67 006e 2943     		orrs	r1, r1, r5
  68 0070 14F4403F 		tst	r4, #196608
  69 0074 0160     		str	r1, [r0]
  70 0076 D3D0     		beq	.L20
  71 0078 904D     		ldr	r5, .L67+4
  72 007a 0021     		movs	r1, #0
  73 007c 0391     		str	r1, [sp, #12]
  74 007e 696C     		ldr	r1, [r5, #68]
  75 0080 41F48041 		orr	r1, r1, #16384
  76 0084 6964     		str	r1, [r5, #68]
  77 0086 696C     		ldr	r1, [r5, #68]
  78 0088 01F48041 		and	r1, r1, #16384
  79 008c 0391     		str	r1, [sp, #12]
  80 008e 0399     		ldr	r1, [sp, #12]
  81 0090 22F00301 		bic	r1, r2, #3
  82 0094 01F18041 		add	r1, r1, #1073741824
  83 0098 01F59C31 		add	r1, r1, #79872
  84 009c 02F00307 		and	r7, r2, #3
  85 00a0 8D68     		ldr	r5, [r1, #8]
  86 00a2 BF00     		lsls	r7, r7, #2
  87 00a4 4FF00F0C 		mov	ip, #15
  88 00a8 0CFA07FC 		lsl	ip, ip, r7
  89 00ac 25EA0C08 		bic	r8, r5, ip
  90 00b0 834D     		ldr	r5, .L67+8
  91 00b2 A842     		cmp	r0, r5
  92 00b4 61D0     		beq	.L60
  93 00b6 834D     		ldr	r5, .L67+12
  94 00b8 A842     		cmp	r0, r5
  95 00ba 00F05E81 		beq	.L61
  96 00be DFF80CC2 		ldr	ip, .L67+20
  97 00c2 6045     		cmp	r0, ip
  98 00c4 00F06081 		beq	.L62
  99 00c8 DFF804C2 		ldr	ip, .L67+24
 100 00cc 6045     		cmp	r0, ip
 101 00ce 00F06981 		beq	.L63
 102 00d2 DFF800C2 		ldr	ip, .L67+28
 103 00d6 6045     		cmp	r0, ip
 104 00d8 00F06B81 		beq	.L64
 105 00dc DFF8F8C1 		ldr	ip, .L67+32
 106 00e0 6045     		cmp	r0, ip
 107 00e2 00F05881 		beq	.L65
 108 00e6 DFF8F4C1 		ldr	ip, .L67+36
 109 00ea 6045     		cmp	r0, ip
 110 00ec 0CBF     		ite	eq
 111 00ee 4FF0070C 		moveq	ip, #7
 112 00f2 4FF0080C 		movne	ip, #8
 113 00f6 0CFA07F7 		lsl	r7, ip, r7
 114 00fa 48EA0705 		orr	r5, r8, r7
 115 00fe 42E0     		b	.L28
ARM GAS  /tmp/ccaJEHVr.s 			page 3


 116              	.L59:
 117 0100 8768     		ldr	r7, [r0, #8]
 118 0102 07EA0508 		and	r8, r7, r5
 119 0106 DAF80C70 		ldr	r7, [r10, #12]
 120 010a 8F40     		lsls	r7, r7, r1
 121 010c 47EA0807 		orr	r7, r7, r8
 122 0110 8760     		str	r7, [r0, #8]
 123 0112 4768     		ldr	r7, [r0, #4]
 124 0114 27EA0608 		bic	r8, r7, r6
 125 0118 C4F30017 		ubfx	r7, r4, #4, #1
 126 011c 9740     		lsls	r7, r7, r2
 127 011e 47EA0807 		orr	r7, r7, r8
 128 0122 4760     		str	r7, [r0, #4]
 129 0124 C768     		ldr	r7, [r0, #12]
 130 0126 07EA0508 		and	r8, r7, r5
 131 012a DAF80870 		ldr	r7, [r10, #8]
 132 012e 8F40     		lsls	r7, r7, r1
 133 0130 47EA0807 		orr	r7, r7, r8
 134 0134 BCF1020F 		cmp	ip, #2
 135 0138 C760     		str	r7, [r0, #12]
 136 013a 94D1     		bne	.L23
 137 013c 4FEAD209 		lsr	r9, r2, #3
 138 0140 00EB8909 		add	r9, r0, r9, lsl #2
 139 0144 02F00708 		and	r8, r2, #7
 140 0148 D9F82070 		ldr	r7, [r9, #32]
 141 014c 0097     		str	r7, [sp]
 142 014e DAF81070 		ldr	r7, [r10, #16]
 143 0152 4FEA8808 		lsl	r8, r8, #2
 144 0156 07FA08F7 		lsl	r7, r7, r8
 145 015a 0197     		str	r7, [sp, #4]
 146 015c 0F27     		movs	r7, #15
 147 015e 07FA08F8 		lsl	r8, r7, r8
 148 0162 009F     		ldr	r7, [sp]
 149 0164 27EA0808 		bic	r8, r7, r8
 150 0168 019F     		ldr	r7, [sp, #4]
 151 016a 47EA0807 		orr	r7, r7, r8
 152 016e C9F82070 		str	r7, [r9, #32]
 153 0172 78E7     		b	.L23
 154              	.L1:
 155 0174 05B0     		add	sp, sp, #20
 156              		@ sp needed
 157 0176 BDE8F08F 		pop	{r4, r5, r6, r7, r8, r9, r10, fp, pc}
 158              	.L60:
 159 017a 4FF0010C 		mov	ip, #1
 160 017e 0CFA07F7 		lsl	r7, ip, r7
 161 0182 48EA0705 		orr	r5, r8, r7
 162              	.L28:
 163 0186 8D60     		str	r5, [r1, #8]
 164 0188 DEF80810 		ldr	r1, [lr, #8]
 165 018c F543     		mvns	r5, r6
 166 018e E702     		lsls	r7, r4, #11
 167 0190 54BF     		ite	pl
 168 0192 2940     		andpl	r1, r1, r5
 169 0194 3143     		orrmi	r1, r1, r6
 170 0196 CEF80810 		str	r1, [lr, #8]
 171 019a DEF80C10 		ldr	r1, [lr, #12]
 172 019e A702     		lsls	r7, r4, #10
ARM GAS  /tmp/ccaJEHVr.s 			page 4


 173 01a0 54BF     		ite	pl
 174 01a2 2940     		andpl	r1, r1, r5
 175 01a4 3143     		orrmi	r1, r1, r6
 176 01a6 CEF80C10 		str	r1, [lr, #12]
 177 01aa DEF80410 		ldr	r1, [lr, #4]
 178 01ae A703     		lsls	r7, r4, #14
 179 01b0 54BF     		ite	pl
 180 01b2 2940     		andpl	r1, r1, r5
 181 01b4 3143     		orrmi	r1, r1, r6
 182 01b6 CEF80410 		str	r1, [lr, #4]
 183 01ba DEF80010 		ldr	r1, [lr]
 184 01be E403     		lsls	r4, r4, #15
 185 01c0 54BF     		ite	pl
 186 01c2 2940     		andpl	r1, r1, r5
 187 01c4 3143     		orrmi	r1, r1, r6
 188 01c6 CEF80010 		str	r1, [lr]
 189 01ca 29E7     		b	.L20
 190              	.L58:
 191 01cc DFF8ECA0 		ldr	r10, .L67+4
 192 01d0 02E0     		b	.L17
 193              	.L10:
 194 01d2 0132     		adds	r2, r2, #1
 195 01d4 102A     		cmp	r2, #16
 196 01d6 CDD0     		beq	.L1
 197              	.L17:
 198 01d8 0BFA02F4 		lsl	r4, fp, r2
 199 01dc 03EA0407 		and	r7, r3, r4
 200 01e0 9C43     		bics	r4, r4, r3
 201 01e2 F6D1     		bne	.L10
 202 01e4 4D68     		ldr	r5, [r1, #4]
 203 01e6 5400     		lsls	r4, r2, #1
 204 01e8 0326     		movs	r6, #3
 205 01ea 06FA04FC 		lsl	ip, r6, r4
 206 01ee 05F00309 		and	r9, r5, #3
 207 01f2 6FEA0C08 		mvn	r8, ip
 208 01f6 09F1FF3C 		add	ip, r9, #-1
 209 01fa BCF1010F 		cmp	ip, #1
 210 01fe 6FD9     		bls	.L66
 211 0200 B9F1030F 		cmp	r9, #3
 212 0204 0AD0     		beq	.L16
 213 0206 D0F80CE0 		ldr	lr, [r0, #12]
 214 020a 8E68     		ldr	r6, [r1, #8]
 215 020c 08EA0E0E 		and	lr, r8, lr
 216 0210 06FA04FC 		lsl	ip, r6, r4
 217 0214 4CEA0E0C 		orr	ip, ip, lr
 218 0218 C0F80CC0 		str	ip, [r0, #12]
 219              	.L16:
 220 021c D0F800C0 		ldr	ip, [r0]
 221 0220 09FA04F4 		lsl	r4, r9, r4
 222 0224 0CEA080C 		and	ip, ip, r8
 223 0228 44EA0C04 		orr	r4, r4, ip
 224 022c 15F4403F 		tst	r5, #196608
 225 0230 0460     		str	r4, [r0]
 226 0232 CED0     		beq	.L10
 227 0234 0024     		movs	r4, #0
 228 0236 0394     		str	r4, [sp, #12]
 229 0238 DAF84440 		ldr	r4, [r10, #68]
ARM GAS  /tmp/ccaJEHVr.s 			page 5


 230 023c 44F48044 		orr	r4, r4, #16384
 231 0240 CAF84440 		str	r4, [r10, #68]
 232 0244 DAF84440 		ldr	r4, [r10, #68]
 233 0248 04F48044 		and	r4, r4, #16384
 234 024c 0394     		str	r4, [sp, #12]
 235 024e 039C     		ldr	r4, [sp, #12]
 236 0250 22F00304 		bic	r4, r2, #3
 237 0254 04F18044 		add	r4, r4, #1073741824
 238 0258 04F59C34 		add	r4, r4, #79872
 239 025c 02F0030C 		and	ip, r2, #3
 240 0260 D4F808E0 		ldr	lr, [r4, #8]
 241 0264 0F26     		movs	r6, #15
 242 0266 4FEA8C0C 		lsl	ip, ip, #2
 243 026a 06FA0CFC 		lsl	ip, r6, ip
 244 026e 2EEA0C0C 		bic	ip, lr, ip
 245 0272 C4F808C0 		str	ip, [r4, #8]
 246 0276 144C     		ldr	r4, .L67+16
 247 0278 EE02     		lsls	r6, r5, #11
 248 027a A468     		ldr	r4, [r4, #8]
 249 027c 6FEA070C 		mvn	ip, r7
 250 0280 79D4     		bmi	.L6
 251 0282 04EA0C04 		and	r4, r4, ip
 252              	.L14:
 253 0286 104E     		ldr	r6, .L67+16
 254 0288 B460     		str	r4, [r6, #8]
 255 028a F468     		ldr	r4, [r6, #12]
 256 028c AE02     		lsls	r6, r5, #10
 257 028e 70D4     		bmi	.L7
 258 0290 04EA0C04 		and	r4, r4, ip
 259              	.L13:
 260 0294 0C4E     		ldr	r6, .L67+16
 261 0296 F460     		str	r4, [r6, #12]
 262 0298 7468     		ldr	r4, [r6, #4]
 263 029a AE03     		lsls	r6, r5, #14
 264 029c 67D4     		bmi	.L8
 265 029e 0CEA0404 		and	r4, ip, r4
 266              	.L12:
 267 02a2 094E     		ldr	r6, .L67+16
 268 02a4 ED03     		lsls	r5, r5, #15
 269 02a6 7460     		str	r4, [r6, #4]
 270 02a8 3468     		ldr	r4, [r6]
 271 02aa 5ED4     		bmi	.L9
 272 02ac 0CEA0404 		and	r4, ip, r4
 273              	.L11:
 274 02b0 054D     		ldr	r5, .L67+16
 275 02b2 2C60     		str	r4, [r5]
 276 02b4 8DE7     		b	.L10
 277              	.L68:
 278 02b6 00BF     		.align	2
 279              	.L67:
 280 02b8 00000240 		.word	1073872896
 281 02bc 00380240 		.word	1073887232
 282 02c0 00040240 		.word	1073873920
 283 02c4 00080240 		.word	1073874944
 284 02c8 003C0140 		.word	1073822720
 285 02cc 000C0240 		.word	1073875968
 286 02d0 00100240 		.word	1073876992
ARM GAS  /tmp/ccaJEHVr.s 			page 6


 287 02d4 00140240 		.word	1073878016
 288 02d8 00180240 		.word	1073879040
 289 02dc 001C0240 		.word	1073880064
 290              	.L66:
 291 02e0 D0F808E0 		ldr	lr, [r0, #8]
 292 02e4 CE68     		ldr	r6, [r1, #12]
 293 02e6 08EA0E0E 		and	lr, r8, lr
 294 02ea 06FA04FC 		lsl	ip, r6, r4
 295 02ee 4CEA0E0C 		orr	ip, ip, lr
 296 02f2 C0F808C0 		str	ip, [r0, #8]
 297 02f6 D0F804E0 		ldr	lr, [r0, #4]
 298 02fa C5F3001C 		ubfx	ip, r5, #4, #1
 299 02fe 2EEA070E 		bic	lr, lr, r7
 300 0302 0CFA02FC 		lsl	ip, ip, r2
 301 0306 4CEA0E0C 		orr	ip, ip, lr
 302 030a C0F804C0 		str	ip, [r0, #4]
 303 030e D0F80CE0 		ldr	lr, [r0, #12]
 304 0312 8E68     		ldr	r6, [r1, #8]
 305 0314 08EA0E0E 		and	lr, r8, lr
 306 0318 06FA04FC 		lsl	ip, r6, r4
 307 031c 4CEA0E0C 		orr	ip, ip, lr
 308 0320 B9F1020F 		cmp	r9, #2
 309 0324 C0F80CC0 		str	ip, [r0, #12]
 310 0328 7FF478AF 		bne	.L16
 311 032c 4FEAD20C 		lsr	ip, r2, #3
 312 0330 4FEA8C0C 		lsl	ip, ip, #2
 313 0334 0CF1804C 		add	ip, ip, #1073741824
 314 0338 0CF5003C 		add	ip, ip, #131072
 315 033c 02F0070E 		and	lr, r2, #7
 316 0340 DCF82060 		ldr	r6, [ip, #32]
 317 0344 0096     		str	r6, [sp]
 318 0346 0E69     		ldr	r6, [r1, #16]
 319 0348 4FEA8E0E 		lsl	lr, lr, #2
 320 034c 06FA0EF6 		lsl	r6, r6, lr
 321 0350 0196     		str	r6, [sp, #4]
 322 0352 0F26     		movs	r6, #15
 323 0354 06FA0EFE 		lsl	lr, r6, lr
 324 0358 009E     		ldr	r6, [sp]
 325 035a 26EA0E0E 		bic	lr, r6, lr
 326 035e 019E     		ldr	r6, [sp, #4]
 327 0360 46EA0E0E 		orr	lr, r6, lr
 328 0364 CCF820E0 		str	lr, [ip, #32]
 329 0368 58E7     		b	.L16
 330              	.L9:
 331 036a 3C43     		orrs	r4, r4, r7
 332 036c A0E7     		b	.L11
 333              	.L8:
 334 036e 3C43     		orrs	r4, r4, r7
 335 0370 97E7     		b	.L12
 336              	.L7:
 337 0372 3C43     		orrs	r4, r4, r7
 338 0374 8EE7     		b	.L13
 339              	.L6:
 340 0376 3C43     		orrs	r4, r4, r7
 341 0378 85E7     		b	.L14
 342              	.L61:
 343 037a 4FF0020C 		mov	ip, #2
ARM GAS  /tmp/ccaJEHVr.s 			page 7


 344 037e 0CFA07F7 		lsl	r7, ip, r7
 345 0382 48EA0705 		orr	r5, r8, r7
 346 0386 FEE6     		b	.L28
 347              	.L62:
 348 0388 4FF0030C 		mov	ip, #3
 349 038c 0CFA07F7 		lsl	r7, ip, r7
 350 0390 48EA0705 		orr	r5, r8, r7
 351 0394 F7E6     		b	.L28
 352              	.L65:
 353 0396 4FF0060C 		mov	ip, #6
 354 039a 0CFA07F7 		lsl	r7, ip, r7
 355 039e 48EA0705 		orr	r5, r8, r7
 356 03a2 F0E6     		b	.L28
 357              	.L63:
 358 03a4 4FF0040C 		mov	ip, #4
 359 03a8 0CFA07F7 		lsl	r7, ip, r7
 360 03ac 48EA0705 		orr	r5, r8, r7
 361 03b0 E9E6     		b	.L28
 362              	.L64:
 363 03b2 4FF0050C 		mov	ip, #5
 364 03b6 0CFA07F7 		lsl	r7, ip, r7
 365 03ba 48EA0705 		orr	r5, r8, r7
 366 03be E2E6     		b	.L28
 368              		.section	.text.HAL_GPIO_DeInit,"ax",%progbits
 369              		.align	1
 370              		.p2align 2,,3
 371              		.global	HAL_GPIO_DeInit
 372              		.syntax unified
 373              		.thumb
 374              		.thumb_func
 376              	HAL_GPIO_DeInit:
 377              		@ args = 0, pretend = 0, frame = 8
 378              		@ frame_needed = 0, uses_anonymous_args = 0
 379 0000 2DE9F04F 		push	{r4, r5, r6, r7, r8, r9, r10, fp, lr}
 380 0004 854B     		ldr	r3, .L97
 381 0006 9842     		cmp	r0, r3
 382 0008 83B0     		sub	sp, sp, #12
 383 000a 4FF00003 		mov	r3, #0
 384 000e 4FF00106 		mov	r6, #1
 385 0012 00F08E80 		beq	.L90
 386 0016 824F     		ldr	r7, .L97+4
 387 0018 4FF00F09 		mov	r9, #15
 388 001c 4FF0030A 		mov	r10, #3
 389 0020 02E0     		b	.L70
 390              	.L76:
 391 0022 0133     		adds	r3, r3, #1
 392 0024 102B     		cmp	r3, #16
 393 0026 39D0     		beq	.L69
 394              	.L70:
 395 0028 06FA03F2 		lsl	r2, r6, r3
 396 002c 32EA0104 		bics	r4, r2, r1
 397 0030 02EA010C 		and	ip, r2, r1
 398 0034 F5D1     		bne	.L76
 399 0036 23F00304 		bic	r4, r3, #3
 400 003a 04F18044 		add	r4, r4, #1073741824
 401 003e 03F00305 		and	r5, r3, #3
 402 0042 AD00     		lsls	r5, r5, #2
ARM GAS  /tmp/ccaJEHVr.s 			page 8


 403 0044 04F59C34 		add	r4, r4, #79872
 404 0048 09FA05F8 		lsl	r8, r9, r5
 405 004c 0195     		str	r5, [sp, #4]
 406 004e 754D     		ldr	r5, .L97+8
 407 0050 D4F808E0 		ldr	lr, [r4, #8]
 408 0054 A842     		cmp	r0, r5
 409 0056 08EA0E0E 		and	lr, r8, lr
 410 005a 22D0     		beq	.L91
 411 005c 724D     		ldr	r5, .L97+12
 412 005e A842     		cmp	r0, r5
 413 0060 5BD0     		beq	.L92
 414 0062 724D     		ldr	r5, .L97+16
 415 0064 A842     		cmp	r0, r5
 416 0066 5ED0     		beq	.L93
 417 0068 714D     		ldr	r5, .L97+20
 418 006a A842     		cmp	r0, r5
 419 006c 00F0C480 		beq	.L94
 420 0070 DFF8C0B1 		ldr	fp, .L97+24
 421 0074 5845     		cmp	r0, fp
 422 0076 00F0C580 		beq	.L95
 423 007a DFF8BCB1 		ldr	fp, .L97+28
 424 007e 5845     		cmp	r0, fp
 425 0080 00F0C680 		beq	.L96
 426 0084 DFF8B4B1 		ldr	fp, .L97+32
 427 0088 019D     		ldr	r5, [sp, #4]
 428 008a 5845     		cmp	r0, fp
 429 008c 0CBF     		ite	eq
 430 008e 4FF0070B 		moveq	fp, #7
 431 0092 4FF0080B 		movne	fp, #8
 432 0096 0BFA05F5 		lsl	r5, fp, r5
 433 009a 05E0     		b	.L78
 434              	.L69:
 435 009c 03B0     		add	sp, sp, #12
 436              		@ sp needed
 437 009e BDE8F08F 		pop	{r4, r5, r6, r7, r8, r9, r10, fp, pc}
 438              	.L91:
 439 00a2 019D     		ldr	r5, [sp, #4]
 440 00a4 06FA05F5 		lsl	r5, r6, r5
 441              	.L78:
 442 00a8 AE45     		cmp	lr, r5
 443 00aa 13D1     		bne	.L85
 444 00ac 3D68     		ldr	r5, [r7]
 445 00ae 25EA0C05 		bic	r5, r5, ip
 446 00b2 3D60     		str	r5, [r7]
 447 00b4 7D68     		ldr	r5, [r7, #4]
 448 00b6 25EA0C05 		bic	r5, r5, ip
 449 00ba 7D60     		str	r5, [r7, #4]
 450 00bc FD68     		ldr	r5, [r7, #12]
 451 00be 25EA0C05 		bic	r5, r5, ip
 452 00c2 FD60     		str	r5, [r7, #12]
 453 00c4 BD68     		ldr	r5, [r7, #8]
 454 00c6 25EA0C05 		bic	r5, r5, ip
 455 00ca BD60     		str	r5, [r7, #8]
 456 00cc A568     		ldr	r5, [r4, #8]
 457 00ce 25EA0805 		bic	r5, r5, r8
 458 00d2 A560     		str	r5, [r4, #8]
 459              	.L85:
ARM GAS  /tmp/ccaJEHVr.s 			page 9


 460 00d4 0468     		ldr	r4, [r0]
 461 00d6 5D00     		lsls	r5, r3, #1
 462 00d8 0AFA05F5 		lsl	r5, r10, r5
 463 00dc 4FEAD30C 		lsr	ip, r3, #3
 464 00e0 24EA0504 		bic	r4, r4, r5
 465 00e4 00EB8C0C 		add	ip, r0, ip, lsl #2
 466 00e8 0460     		str	r4, [r0]
 467 00ea 03F00704 		and	r4, r3, #7
 468 00ee DCF820E0 		ldr	lr, [ip, #32]
 469 00f2 A400     		lsls	r4, r4, #2
 470 00f4 09FA04F4 		lsl	r4, r9, r4
 471 00f8 2EEA0404 		bic	r4, lr, r4
 472 00fc CCF82040 		str	r4, [ip, #32]
 473 0100 C468     		ldr	r4, [r0, #12]
 474 0102 24EA0504 		bic	r4, r4, r5
 475 0106 C460     		str	r4, [r0, #12]
 476 0108 4468     		ldr	r4, [r0, #4]
 477 010a 24EA0202 		bic	r2, r4, r2
 478 010e 4260     		str	r2, [r0, #4]
 479 0110 8268     		ldr	r2, [r0, #8]
 480 0112 22EA0502 		bic	r2, r2, r5
 481 0116 8260     		str	r2, [r0, #8]
 482 0118 83E7     		b	.L76
 483              	.L92:
 484 011a 019D     		ldr	r5, [sp, #4]
 485 011c 4FF0020B 		mov	fp, #2
 486 0120 0BFA05F5 		lsl	r5, fp, r5
 487 0124 C0E7     		b	.L78
 488              	.L93:
 489 0126 019D     		ldr	r5, [sp, #4]
 490 0128 4FF0030B 		mov	fp, #3
 491 012c 0BFA05F5 		lsl	r5, fp, r5
 492 0130 BAE7     		b	.L78
 493              	.L90:
 494 0132 3B4F     		ldr	r7, .L97+4
 495 0134 4FF00F0C 		mov	ip, #15
 496 0138 4FF0030E 		mov	lr, #3
 497 013c 02E0     		b	.L74
 498              	.L71:
 499 013e 0133     		adds	r3, r3, #1
 500 0140 102B     		cmp	r3, #16
 501 0142 ABD0     		beq	.L69
 502              	.L74:
 503 0144 06FA03F2 		lsl	r2, r6, r3
 504 0148 01EA0205 		and	r5, r1, r2
 505 014c 8A43     		bics	r2, r2, r1
 506 014e F6D1     		bne	.L71
 507 0150 23F00302 		bic	r2, r3, #3
 508 0154 02F18042 		add	r2, r2, #1073741824
 509 0158 02F59C32 		add	r2, r2, #79872
 510 015c 03F00304 		and	r4, r3, #3
 511 0160 D2F80890 		ldr	r9, [r2, #8]
 512 0164 A400     		lsls	r4, r4, #2
 513 0166 0CFA04F4 		lsl	r4, ip, r4
 514 016a 14EA090F 		tst	r4, r9
 515 016e 6FEA0508 		mvn	r8, r5
 516 0172 1DD1     		bne	.L73
ARM GAS  /tmp/ccaJEHVr.s 			page 10


 517 0174 D7F80080 		ldr	r8, [r7]
 518 0178 28EA0508 		bic	r8, r8, r5
 519 017c C7F80080 		str	r8, [r7]
 520 0180 D7F80480 		ldr	r8, [r7, #4]
 521 0184 28EA0508 		bic	r8, r8, r5
 522 0188 C7F80480 		str	r8, [r7, #4]
 523 018c D7F80C80 		ldr	r8, [r7, #12]
 524 0190 28EA0508 		bic	r8, r8, r5
 525 0194 C7F80C80 		str	r8, [r7, #12]
 526 0198 D7F80880 		ldr	r8, [r7, #8]
 527 019c 28EA0508 		bic	r8, r8, r5
 528 01a0 C7F80880 		str	r8, [r7, #8]
 529 01a4 6FEA0508 		mvn	r8, r5
 530 01a8 9568     		ldr	r5, [r2, #8]
 531 01aa 25EA0404 		bic	r4, r5, r4
 532 01ae 9460     		str	r4, [r2, #8]
 533              	.L73:
 534 01b0 0268     		ldr	r2, [r0]
 535 01b2 5C00     		lsls	r4, r3, #1
 536 01b4 0EFA04F4 		lsl	r4, lr, r4
 537 01b8 22EA0402 		bic	r2, r2, r4
 538 01bc 0260     		str	r2, [r0]
 539 01be DA08     		lsrs	r2, r3, #3
 540 01c0 9200     		lsls	r2, r2, #2
 541 01c2 02F18042 		add	r2, r2, #1073741824
 542 01c6 02F50032 		add	r2, r2, #131072
 543 01ca 03F00705 		and	r5, r3, #7
 544 01ce D2F82090 		ldr	r9, [r2, #32]
 545 01d2 AD00     		lsls	r5, r5, #2
 546 01d4 0CFA05F5 		lsl	r5, ip, r5
 547 01d8 29EA0505 		bic	r5, r9, r5
 548 01dc 1562     		str	r5, [r2, #32]
 549 01de C268     		ldr	r2, [r0, #12]
 550 01e0 22EA0402 		bic	r2, r2, r4
 551 01e4 C260     		str	r2, [r0, #12]
 552 01e6 4268     		ldr	r2, [r0, #4]
 553 01e8 08EA0202 		and	r2, r8, r2
 554 01ec 4260     		str	r2, [r0, #4]
 555 01ee 8268     		ldr	r2, [r0, #8]
 556 01f0 22EA0402 		bic	r2, r2, r4
 557 01f4 8260     		str	r2, [r0, #8]
 558 01f6 A2E7     		b	.L71
 559              	.L94:
 560 01f8 019D     		ldr	r5, [sp, #4]
 561 01fa 4FF0040B 		mov	fp, #4
 562 01fe 0BFA05F5 		lsl	r5, fp, r5
 563 0202 51E7     		b	.L78
 564              	.L95:
 565 0204 019D     		ldr	r5, [sp, #4]
 566 0206 4FF0050B 		mov	fp, #5
 567 020a 0BFA05F5 		lsl	r5, fp, r5
 568 020e 4BE7     		b	.L78
 569              	.L96:
 570 0210 019D     		ldr	r5, [sp, #4]
 571 0212 4FF0060B 		mov	fp, #6
 572 0216 0BFA05F5 		lsl	r5, fp, r5
 573 021a 45E7     		b	.L78
ARM GAS  /tmp/ccaJEHVr.s 			page 11


 574              	.L98:
 575              		.align	2
 576              	.L97:
 577 021c 00000240 		.word	1073872896
 578 0220 003C0140 		.word	1073822720
 579 0224 00040240 		.word	1073873920
 580 0228 00080240 		.word	1073874944
 581 022c 000C0240 		.word	1073875968
 582 0230 00100240 		.word	1073876992
 583 0234 00140240 		.word	1073878016
 584 0238 00180240 		.word	1073879040
 585 023c 001C0240 		.word	1073880064
 587              		.section	.text.HAL_GPIO_ReadPin,"ax",%progbits
 588              		.align	1
 589              		.p2align 2,,3
 590              		.global	HAL_GPIO_ReadPin
 591              		.syntax unified
 592              		.thumb
 593              		.thumb_func
 595              	HAL_GPIO_ReadPin:
 596              		@ args = 0, pretend = 0, frame = 0
 597              		@ frame_needed = 0, uses_anonymous_args = 0
 598              		@ link register save eliminated.
 599 0000 0069     		ldr	r0, [r0, #16]
 600 0002 0840     		ands	r0, r0, r1
 601 0004 0038     		subs	r0, r0, #0
 602 0006 18BF     		it	ne
 603 0008 0120     		movne	r0, #1
 604 000a 7047     		bx	lr
 606              		.section	.text.HAL_GPIO_WritePin,"ax",%progbits
 607              		.align	1
 608              		.p2align 2,,3
 609              		.global	HAL_GPIO_WritePin
 610              		.syntax unified
 611              		.thumb
 612              		.thumb_func
 614              	HAL_GPIO_WritePin:
 615              		@ args = 0, pretend = 0, frame = 0
 616              		@ frame_needed = 0, uses_anonymous_args = 0
 617              		@ link register save eliminated.
 618 0000 02B9     		cbnz	r2, .L103
 619 0002 0904     		lsls	r1, r1, #16
 620              	.L103:
 621 0004 8161     		str	r1, [r0, #24]
 622 0006 7047     		bx	lr
 624              		.section	.text.HAL_GPIO_TogglePin,"ax",%progbits
 625              		.align	1
 626              		.p2align 2,,3
 627              		.global	HAL_GPIO_TogglePin
 628              		.syntax unified
 629              		.thumb
 630              		.thumb_func
 632              	HAL_GPIO_TogglePin:
 633              		@ args = 0, pretend = 0, frame = 0
 634              		@ frame_needed = 0, uses_anonymous_args = 0
 635              		@ link register save eliminated.
 636 0000 4369     		ldr	r3, [r0, #20]
ARM GAS  /tmp/ccaJEHVr.s 			page 12


 637 0002 01EA0302 		and	r2, r1, r3
 638 0006 21EA0301 		bic	r1, r1, r3
 639 000a 41EA0241 		orr	r1, r1, r2, lsl #16
 640 000e 8161     		str	r1, [r0, #24]
 641 0010 7047     		bx	lr
 643 0012 00BF     		.section	.text.HAL_GPIO_LockPin,"ax",%progbits
 644              		.align	1
 645              		.p2align 2,,3
 646              		.global	HAL_GPIO_LockPin
 647              		.syntax unified
 648              		.thumb
 649              		.thumb_func
 651              	HAL_GPIO_LockPin:
 652              		@ args = 0, pretend = 0, frame = 8
 653              		@ frame_needed = 0, uses_anonymous_args = 0
 654              		@ link register save eliminated.
 655 0000 82B0     		sub	sp, sp, #8
 656 0002 4FF48033 		mov	r3, #65536
 657 0006 0193     		str	r3, [sp, #4]
 658 0008 019B     		ldr	r3, [sp, #4]
 659 000a 0B43     		orrs	r3, r3, r1
 660 000c 0193     		str	r3, [sp, #4]
 661 000e 019B     		ldr	r3, [sp, #4]
 662 0010 C361     		str	r3, [r0, #28]
 663 0012 C161     		str	r1, [r0, #28]
 664 0014 019B     		ldr	r3, [sp, #4]
 665 0016 C361     		str	r3, [r0, #28]
 666 0018 C369     		ldr	r3, [r0, #28]
 667 001a 0193     		str	r3, [sp, #4]
 668 001c C069     		ldr	r0, [r0, #28]
 669 001e 80F48030 		eor	r0, r0, #65536
 670 0022 C0F30040 		ubfx	r0, r0, #16, #1
 671 0026 02B0     		add	sp, sp, #8
 672              		@ sp needed
 673 0028 7047     		bx	lr
 675 002a 00BF     		.section	.text.HAL_GPIO_EXTI_Callback,"ax",%progbits
 676              		.align	1
 677              		.p2align 2,,3
 678              		.weak	HAL_GPIO_EXTI_Callback
 679              		.syntax unified
 680              		.thumb
 681              		.thumb_func
 683              	HAL_GPIO_EXTI_Callback:
 684              		@ args = 0, pretend = 0, frame = 0
 685              		@ frame_needed = 0, uses_anonymous_args = 0
 686              		@ link register save eliminated.
 687 0000 7047     		bx	lr
 689 0002 00BF     		.section	.text.HAL_GPIO_EXTI_IRQHandler,"ax",%progbits
 690              		.align	1
 691              		.p2align 2,,3
 692              		.global	HAL_GPIO_EXTI_IRQHandler
 693              		.syntax unified
 694              		.thumb
 695              		.thumb_func
 697              	HAL_GPIO_EXTI_IRQHandler:
 698              		@ args = 0, pretend = 0, frame = 0
 699              		@ frame_needed = 0, uses_anonymous_args = 0
ARM GAS  /tmp/ccaJEHVr.s 			page 13


 700 0000 044A     		ldr	r2, .L118
 701 0002 5169     		ldr	r1, [r2, #20]
 702 0004 0142     		tst	r1, r0
 703 0006 00D1     		bne	.L117
 704 0008 7047     		bx	lr
 705              	.L117:
 706 000a 08B5     		push	{r3, lr}
 707 000c 5061     		str	r0, [r2, #20]
 708 000e FFF7FEFF 		bl	HAL_GPIO_EXTI_Callback
 709 0012 08BD     		pop	{r3, pc}
 710              	.L119:
 711              		.align	2
 712              	.L118:
 713 0014 003C0140 		.word	1073822720
 715              		.ident	"GCC: (Arch Repository) 14.1.0"
ARM GAS  /tmp/ccaJEHVr.s 			page 14

