ARM GAS  /tmp/ccDEhBP3.s 			page 1


   1              		.cpu cortex-m4
   2              		.arch armv7e-m
   3              		.fpu fpv4-sp-d16
   4              		.eabi_attribute 27, 1
   5              		.eabi_attribute 28, 1
   6              		.eabi_attribute 20, 1
   7              		.eabi_attribute 21, 1
   8              		.eabi_attribute 23, 3
   9              		.eabi_attribute 24, 1
  10              		.eabi_attribute 25, 1
  11              		.eabi_attribute 26, 1
  12              		.eabi_attribute 30, 1
  13              		.eabi_attribute 34, 1
  14              		.eabi_attribute 18, 4
  15              		.file	"main.c"
  16              		.text
  17              		.section	.text.Error_Handler,"ax",%progbits
  18              		.align	1
  19              		.global	Error_Handler
  20              		.syntax unified
  21              		.thumb
  22              		.thumb_func
  24              	Error_Handler:
  25              		@ Volatile: function does not return.
  26              		@ args = 0, pretend = 0, frame = 0
  27              		@ frame_needed = 0, uses_anonymous_args = 0
  28              		@ link register save eliminated.
  29              		.syntax unified
  30              	@ 962 "Drivers/CMSIS/Include/cmsis_gcc.h" 1
  31 0000 72B6     		cpsid i
  32              	@ 0 "" 2
  33              		.thumb
  34              		.syntax unified
  35              	.L2:
  36 0002 FEE7     		b	.L2
  38              		.section	.text.SystemClock_Config,"ax",%progbits
  39              		.align	1
  40              		.global	SystemClock_Config
  41              		.syntax unified
  42              		.thumb
  43              		.thumb_func
  45              	SystemClock_Config:
  46              		@ args = 0, pretend = 0, frame = 80
  47              		@ frame_needed = 0, uses_anonymous_args = 0
  48 0000 10B5     		push	{r4, lr}
  49 0002 94B0     		sub	sp, sp, #80
  50 0004 08AC     		add	r4, sp, #32
  51 0006 3022     		movs	r2, #48
  52 0008 0021     		movs	r1, #0
  53 000a 2046     		mov	r0, r4
  54 000c FFF7FEFF 		bl	memset
  55 0010 0023     		movs	r3, #0
  56 0012 0393     		str	r3, [sp, #12]
  57 0014 0493     		str	r3, [sp, #16]
  58 0016 0593     		str	r3, [sp, #20]
  59 0018 0693     		str	r3, [sp, #24]
  60 001a 0793     		str	r3, [sp, #28]
ARM GAS  /tmp/ccDEhBP3.s 			page 2


  61 001c 0193     		str	r3, [sp, #4]
  62 001e 204A     		ldr	r2, .L9
  63 0020 116C     		ldr	r1, [r2, #64]
  64 0022 41F08051 		orr	r1, r1, #268435456
  65 0026 1164     		str	r1, [r2, #64]
  66 0028 126C     		ldr	r2, [r2, #64]
  67 002a 02F08052 		and	r2, r2, #268435456
  68 002e 0192     		str	r2, [sp, #4]
  69 0030 019A     		ldr	r2, [sp, #4]
  70 0032 0293     		str	r3, [sp, #8]
  71 0034 1B4B     		ldr	r3, .L9+4
  72 0036 1A68     		ldr	r2, [r3]
  73 0038 42F48042 		orr	r2, r2, #16384
  74 003c 1A60     		str	r2, [r3]
  75 003e 1B68     		ldr	r3, [r3]
  76 0040 03F48043 		and	r3, r3, #16384
  77 0044 0293     		str	r3, [sp, #8]
  78 0046 029B     		ldr	r3, [sp, #8]
  79 0048 0123     		movs	r3, #1
  80 004a 0893     		str	r3, [sp, #32]
  81 004c 4FF48033 		mov	r3, #65536
  82 0050 0993     		str	r3, [sp, #36]
  83 0052 0223     		movs	r3, #2
  84 0054 0E93     		str	r3, [sp, #56]
  85 0056 4FF48002 		mov	r2, #4194304
  86 005a 0F92     		str	r2, [sp, #60]
  87 005c 0622     		movs	r2, #6
  88 005e 1092     		str	r2, [sp, #64]
  89 0060 A822     		movs	r2, #168
  90 0062 1192     		str	r2, [sp, #68]
  91 0064 1293     		str	r3, [sp, #72]
  92 0066 0423     		movs	r3, #4
  93 0068 1393     		str	r3, [sp, #76]
  94 006a 2046     		mov	r0, r4
  95 006c FFF7FEFF 		bl	HAL_RCC_OscConfig
  96 0070 90B9     		cbnz	r0, .L7
  97 0072 0F23     		movs	r3, #15
  98 0074 0393     		str	r3, [sp, #12]
  99 0076 0223     		movs	r3, #2
 100 0078 0493     		str	r3, [sp, #16]
 101 007a 0023     		movs	r3, #0
 102 007c 0593     		str	r3, [sp, #20]
 103 007e 4FF4A053 		mov	r3, #5120
 104 0082 0693     		str	r3, [sp, #24]
 105 0084 4FF48053 		mov	r3, #4096
 106 0088 0793     		str	r3, [sp, #28]
 107 008a 0521     		movs	r1, #5
 108 008c 03A8     		add	r0, sp, #12
 109 008e FFF7FEFF 		bl	HAL_RCC_ClockConfig
 110 0092 18B9     		cbnz	r0, .L8
 111 0094 14B0     		add	sp, sp, #80
 112              		@ sp needed
 113 0096 10BD     		pop	{r4, pc}
 114              	.L7:
 115 0098 FFF7FEFF 		bl	Error_Handler
 116              	.L8:
 117 009c FFF7FEFF 		bl	Error_Handler
ARM GAS  /tmp/ccDEhBP3.s 			page 3


 118              	.L10:
 119              		.align	2
 120              	.L9:
 121 00a0 00380240 		.word	1073887232
 122 00a4 00700040 		.word	1073770496
 124              		.section	.text.main,"ax",%progbits
 125              		.align	1
 126              		.global	main
 127              		.syntax unified
 128              		.thumb
 129              		.thumb_func
 131              	main:
 132              		@ args = 0, pretend = 0, frame = 0
 133              		@ frame_needed = 0, uses_anonymous_args = 0
 134 0000 10B5     		push	{r4, lr}
 135 0002 FFF7FEFF 		bl	HAL_Init
 136 0006 FFF7FEFF 		bl	SystemClock_Config
 137 000a FFF7FEFF 		bl	MX_GPIO_Init
 138 000e 0EE0     		b	.L14
 139              	.L13:
 140 0010 04F10A03 		add	r3, r4, #10
 141 0014 0121     		movs	r1, #1
 142 0016 9940     		lsls	r1, r1, r3
 143 0018 89B2     		uxth	r1, r1
 144 001a 0648     		ldr	r0, .L16
 145 001c FFF7FEFF 		bl	HAL_GPIO_TogglePin
 146 0020 6420     		movs	r0, #100
 147 0022 FFF7FEFF 		bl	HAL_Delay
 148 0026 0134     		adds	r4, r4, #1
 149 0028 E4B2     		uxtb	r4, r4
 150              	.L12:
 151 002a 022C     		cmp	r4, #2
 152 002c F0D9     		bls	.L13
 153              	.L14:
 154 002e 0024     		movs	r4, #0
 155 0030 FBE7     		b	.L12
 156              	.L17:
 157 0032 00BF     		.align	2
 158              	.L16:
 159 0034 001C0240 		.word	1073880064
 161              		.ident	"GCC: (Arch Repository) 14.1.0"
ARM GAS  /tmp/ccDEhBP3.s 			page 4

