ARM GAS  /tmp/cc2qGP9P.s 			page 1


   1              		.cpu cortex-m4
   2              		.arch armv7e-m
   3              		.fpu fpv4-sp-d16
   4              		.eabi_attribute 27, 1
   5              		.eabi_attribute 28, 1
   6              		.eabi_attribute 20, 1
   7              		.eabi_attribute 21, 1
   8              		.eabi_attribute 23, 3
   9              		.eabi_attribute 24, 1
  10              		.eabi_attribute 25, 1
  11              		.eabi_attribute 26, 1
  12              		.eabi_attribute 30, 1
  13              		.eabi_attribute 34, 1
  14              		.eabi_attribute 18, 4
  15              		.file	"stm32f4xx_hal_flash_ex.c"
  16              		.text
  17              		.section	.text.FLASH_MassErase,"ax",%progbits
  18              		.align	1
  19              		.syntax unified
  20              		.thumb
  21              		.thumb_func
  23              	FLASH_MassErase:
  24              		@ args = 0, pretend = 0, frame = 0
  25              		@ frame_needed = 0, uses_anonymous_args = 0
  26              		@ link register save eliminated.
  27 0000 074B     		ldr	r3, .L2
  28 0002 1A69     		ldr	r2, [r3, #16]
  29 0004 22F44072 		bic	r2, r2, #768
  30 0008 1A61     		str	r2, [r3, #16]
  31 000a 1A69     		ldr	r2, [r3, #16]
  32 000c 42F00402 		orr	r2, r2, #4
  33 0010 1A61     		str	r2, [r3, #16]
  34 0012 1A69     		ldr	r2, [r3, #16]
  35 0014 42EA0022 		orr	r2, r2, r0, lsl #8
  36 0018 42F48032 		orr	r2, r2, #65536
  37 001c 1A61     		str	r2, [r3, #16]
  38 001e 7047     		bx	lr
  39              	.L3:
  40              		.align	2
  41              	.L2:
  42 0020 003C0240 		.word	1073888256
  44              		.section	.text.FLASH_OB_BOR_LevelConfig,"ax",%progbits
  45              		.align	1
  46              		.syntax unified
  47              		.thumb
  48              		.thumb_func
  50              	FLASH_OB_BOR_LevelConfig:
  51              		@ args = 0, pretend = 0, frame = 0
  52              		@ frame_needed = 0, uses_anonymous_args = 0
  53              		@ link register save eliminated.
  54 0000 044B     		ldr	r3, .L5
  55 0002 1A7D     		ldrb	r2, [r3, #20]	@ zero_extendqisi2
  56 0004 02F0F302 		and	r2, r2, #243
  57 0008 1A75     		strb	r2, [r3, #20]
  58 000a 1A7D     		ldrb	r2, [r3, #20]	@ zero_extendqisi2
  59 000c 0243     		orrs	r2, r2, r0
  60 000e 1A75     		strb	r2, [r3, #20]
ARM GAS  /tmp/cc2qGP9P.s 			page 2


  61 0010 0020     		movs	r0, #0
  62 0012 7047     		bx	lr
  63              	.L6:
  64              		.align	2
  65              	.L5:
  66 0014 003C0240 		.word	1073888256
  68              		.section	.text.FLASH_OB_GetUser,"ax",%progbits
  69              		.align	1
  70              		.syntax unified
  71              		.thumb
  72              		.thumb_func
  74              	FLASH_OB_GetUser:
  75              		@ args = 0, pretend = 0, frame = 0
  76              		@ frame_needed = 0, uses_anonymous_args = 0
  77              		@ link register save eliminated.
  78 0000 024B     		ldr	r3, .L8
  79 0002 5869     		ldr	r0, [r3, #20]
  80 0004 00F0E000 		and	r0, r0, #224
  81 0008 7047     		bx	lr
  82              	.L9:
  83 000a 00BF     		.align	2
  84              	.L8:
  85 000c 003C0240 		.word	1073888256
  87              		.section	.text.FLASH_OB_GetWRP,"ax",%progbits
  88              		.align	1
  89              		.syntax unified
  90              		.thumb
  91              		.thumb_func
  93              	FLASH_OB_GetWRP:
  94              		@ args = 0, pretend = 0, frame = 0
  95              		@ frame_needed = 0, uses_anonymous_args = 0
  96              		@ link register save eliminated.
  97 0000 014B     		ldr	r3, .L11
  98 0002 D88A     		ldrh	r0, [r3, #22]
  99 0004 80B2     		uxth	r0, r0
 100 0006 7047     		bx	lr
 101              	.L12:
 102              		.align	2
 103              	.L11:
 104 0008 003C0240 		.word	1073888256
 106              		.section	.text.FLASH_OB_GetRDP,"ax",%progbits
 107              		.align	1
 108              		.syntax unified
 109              		.thumb
 110              		.thumb_func
 112              	FLASH_OB_GetRDP:
 113              		@ args = 0, pretend = 0, frame = 0
 114              		@ frame_needed = 0, uses_anonymous_args = 0
 115              		@ link register save eliminated.
 116 0000 054B     		ldr	r3, .L16
 117 0002 5B7D     		ldrb	r3, [r3, #21]	@ zero_extendqisi2
 118 0004 D8B2     		uxtb	r0, r3
 119 0006 CC2B     		cmp	r3, #204
 120 0008 05D0     		beq	.L14
 121 000a 034B     		ldr	r3, .L16
 122 000c 5B7D     		ldrb	r3, [r3, #21]	@ zero_extendqisi2
 123 000e D8B2     		uxtb	r0, r3
ARM GAS  /tmp/cc2qGP9P.s 			page 3


 124 0010 AA2B     		cmp	r3, #170
 125 0012 00D0     		beq	.L14
 126 0014 5520     		movs	r0, #85
 127              	.L14:
 128 0016 7047     		bx	lr
 129              	.L17:
 130              		.align	2
 131              	.L16:
 132 0018 003C0240 		.word	1073888256
 134              		.section	.text.FLASH_OB_GetBOR,"ax",%progbits
 135              		.align	1
 136              		.syntax unified
 137              		.thumb
 138              		.thumb_func
 140              	FLASH_OB_GetBOR:
 141              		@ args = 0, pretend = 0, frame = 0
 142              		@ frame_needed = 0, uses_anonymous_args = 0
 143              		@ link register save eliminated.
 144 0000 024B     		ldr	r3, .L19
 145 0002 187D     		ldrb	r0, [r3, #20]	@ zero_extendqisi2
 146 0004 00F00C00 		and	r0, r0, #12
 147 0008 7047     		bx	lr
 148              	.L20:
 149 000a 00BF     		.align	2
 150              	.L19:
 151 000c 003C0240 		.word	1073888256
 153              		.section	.text.FLASH_OB_EnableWRP,"ax",%progbits
 154              		.align	1
 155              		.syntax unified
 156              		.thumb
 157              		.thumb_func
 159              	FLASH_OB_EnableWRP:
 160              		@ args = 0, pretend = 0, frame = 0
 161              		@ frame_needed = 0, uses_anonymous_args = 0
 162 0000 10B5     		push	{r4, lr}
 163 0002 0446     		mov	r4, r0
 164 0004 4CF25030 		movw	r0, #50000
 165 0008 FFF7FEFF 		bl	FLASH_WaitForLastOperation
 166 000c 28B9     		cbnz	r0, .L22
 167 000e 034A     		ldr	r2, .L24
 168 0010 D38A     		ldrh	r3, [r2, #22]
 169 0012 9BB2     		uxth	r3, r3
 170 0014 23EA0403 		bic	r3, r3, r4
 171 0018 D382     		strh	r3, [r2, #22]	@ movhi
 172              	.L22:
 173 001a 10BD     		pop	{r4, pc}
 174              	.L25:
 175              		.align	2
 176              	.L24:
 177 001c 003C0240 		.word	1073888256
 179              		.section	.text.FLASH_OB_DisableWRP,"ax",%progbits
 180              		.align	1
 181              		.syntax unified
 182              		.thumb
 183              		.thumb_func
 185              	FLASH_OB_DisableWRP:
 186              		@ args = 0, pretend = 0, frame = 0
ARM GAS  /tmp/cc2qGP9P.s 			page 4


 187              		@ frame_needed = 0, uses_anonymous_args = 0
 188 0000 10B5     		push	{r4, lr}
 189 0002 0446     		mov	r4, r0
 190 0004 4CF25030 		movw	r0, #50000
 191 0008 FFF7FEFF 		bl	FLASH_WaitForLastOperation
 192 000c 28B9     		cbnz	r0, .L27
 193 000e 034A     		ldr	r2, .L29
 194 0010 D38A     		ldrh	r3, [r2, #22]
 195 0012 9BB2     		uxth	r3, r3
 196 0014 A4B2     		uxth	r4, r4
 197 0016 2343     		orrs	r3, r3, r4
 198 0018 D382     		strh	r3, [r2, #22]	@ movhi
 199              	.L27:
 200 001a 10BD     		pop	{r4, pc}
 201              	.L30:
 202              		.align	2
 203              	.L29:
 204 001c 003C0240 		.word	1073888256
 206              		.section	.text.FLASH_OB_RDP_LevelConfig,"ax",%progbits
 207              		.align	1
 208              		.syntax unified
 209              		.thumb
 210              		.thumb_func
 212              	FLASH_OB_RDP_LevelConfig:
 213              		@ args = 0, pretend = 0, frame = 0
 214              		@ frame_needed = 0, uses_anonymous_args = 0
 215 0000 10B5     		push	{r4, lr}
 216 0002 0446     		mov	r4, r0
 217 0004 4CF25030 		movw	r0, #50000
 218 0008 FFF7FEFF 		bl	FLASH_WaitForLastOperation
 219 000c 08B9     		cbnz	r0, .L32
 220 000e 014B     		ldr	r3, .L34
 221 0010 5C75     		strb	r4, [r3, #21]
 222              	.L32:
 223 0012 10BD     		pop	{r4, pc}
 224              	.L35:
 225              		.align	2
 226              	.L34:
 227 0014 003C0240 		.word	1073888256
 229              		.section	.text.FLASH_OB_UserConfig,"ax",%progbits
 230              		.align	1
 231              		.syntax unified
 232              		.thumb
 233              		.thumb_func
 235              	FLASH_OB_UserConfig:
 236              		@ args = 0, pretend = 0, frame = 0
 237              		@ frame_needed = 0, uses_anonymous_args = 0
 238 0000 F8B5     		push	{r3, r4, r5, r6, r7, lr}
 239 0002 0446     		mov	r4, r0
 240 0004 0E46     		mov	r6, r1
 241 0006 1546     		mov	r5, r2
 242 0008 4CF25030 		movw	r0, #50000
 243 000c FFF7FEFF 		bl	FLASH_WaitForLastOperation
 244 0010 48B9     		cbnz	r0, .L37
 245 0012 054F     		ldr	r7, .L39
 246 0014 3B7D     		ldrb	r3, [r7, #20]	@ zero_extendqisi2
 247 0016 03F01F03 		and	r3, r3, #31
ARM GAS  /tmp/cc2qGP9P.s 			page 5


 248 001a 43EA0601 		orr	r1, r3, r6
 249 001e 41EA0502 		orr	r2, r1, r5
 250 0022 2243     		orrs	r2, r2, r4
 251 0024 3A75     		strb	r2, [r7, #20]
 252              	.L37:
 253 0026 F8BD     		pop	{r3, r4, r5, r6, r7, pc}
 254              	.L40:
 255              		.align	2
 256              	.L39:
 257 0028 003C0240 		.word	1073888256
 259              		.section	.text.HAL_FLASHEx_OBProgram,"ax",%progbits
 260              		.align	1
 261              		.global	HAL_FLASHEx_OBProgram
 262              		.syntax unified
 263              		.thumb
 264              		.thumb_func
 266              	HAL_FLASHEx_OBProgram:
 267              		@ args = 0, pretend = 0, frame = 0
 268              		@ frame_needed = 0, uses_anonymous_args = 0
 269 0000 1F4B     		ldr	r3, .L58
 270 0002 1B7E     		ldrb	r3, [r3, #24]	@ zero_extendqisi2
 271 0004 012B     		cmp	r3, #1
 272 0006 38D0     		beq	.L48
 273 0008 10B5     		push	{r4, lr}
 274 000a 0446     		mov	r4, r0
 275 000c 1C4B     		ldr	r3, .L58
 276 000e 0122     		movs	r2, #1
 277 0010 1A76     		strb	r2, [r3, #24]
 278 0012 0368     		ldr	r3, [r0]
 279 0014 13F0010F 		tst	r3, #1
 280 0018 0CD0     		beq	.L49
 281 001a 4368     		ldr	r3, [r0, #4]
 282 001c 9342     		cmp	r3, r2
 283 001e 04D0     		beq	.L54
 284 0020 C168     		ldr	r1, [r0, #12]
 285 0022 8068     		ldr	r0, [r0, #8]
 286 0024 FFF7FEFF 		bl	FLASH_OB_DisableWRP
 287 0028 05E0     		b	.L43
 288              	.L54:
 289 002a C168     		ldr	r1, [r0, #12]
 290 002c 8068     		ldr	r0, [r0, #8]
 291 002e FFF7FEFF 		bl	FLASH_OB_EnableWRP
 292 0032 00E0     		b	.L43
 293              	.L49:
 294 0034 0120     		movs	r0, #1
 295              	.L43:
 296 0036 2368     		ldr	r3, [r4]
 297 0038 13F0020F 		tst	r3, #2
 298 003c 0BD1     		bne	.L55
 299              	.L45:
 300 003e 2368     		ldr	r3, [r4]
 301 0040 13F0040F 		tst	r3, #4
 302 0044 0BD1     		bne	.L56
 303              	.L46:
 304 0046 2368     		ldr	r3, [r4]
 305 0048 13F0080F 		tst	r3, #8
 306 004c 11D1     		bne	.L57
ARM GAS  /tmp/cc2qGP9P.s 			page 6


 307              	.L47:
 308 004e 0C4B     		ldr	r3, .L58
 309 0050 0022     		movs	r2, #0
 310 0052 1A76     		strb	r2, [r3, #24]
 311 0054 10BD     		pop	{r4, pc}
 312              	.L55:
 313 0056 207C     		ldrb	r0, [r4, #16]	@ zero_extendqisi2
 314 0058 FFF7FEFF 		bl	FLASH_OB_RDP_LevelConfig
 315 005c EFE7     		b	.L45
 316              	.L56:
 317 005e 207E     		ldrb	r0, [r4, #24]	@ zero_extendqisi2
 318 0060 00F08002 		and	r2, r0, #128
 319 0064 00F04001 		and	r1, r0, #64
 320 0068 00F02000 		and	r0, r0, #32
 321 006c FFF7FEFF 		bl	FLASH_OB_UserConfig
 322 0070 E9E7     		b	.L46
 323              	.L57:
 324 0072 207D     		ldrb	r0, [r4, #20]	@ zero_extendqisi2
 325 0074 FFF7FEFF 		bl	FLASH_OB_BOR_LevelConfig
 326 0078 E9E7     		b	.L47
 327              	.L48:
 328 007a 0220     		movs	r0, #2
 329 007c 7047     		bx	lr
 330              	.L59:
 331 007e 00BF     		.align	2
 332              	.L58:
 333 0080 00000000 		.word	pFlash
 335              		.section	.text.HAL_FLASHEx_OBGetConfig,"ax",%progbits
 336              		.align	1
 337              		.global	HAL_FLASHEx_OBGetConfig
 338              		.syntax unified
 339              		.thumb
 340              		.thumb_func
 342              	HAL_FLASHEx_OBGetConfig:
 343              		@ args = 0, pretend = 0, frame = 0
 344              		@ frame_needed = 0, uses_anonymous_args = 0
 345 0000 10B5     		push	{r4, lr}
 346 0002 0446     		mov	r4, r0
 347 0004 0F23     		movs	r3, #15
 348 0006 0360     		str	r3, [r0]
 349 0008 FFF7FEFF 		bl	FLASH_OB_GetWRP
 350 000c A060     		str	r0, [r4, #8]
 351 000e FFF7FEFF 		bl	FLASH_OB_GetRDP
 352 0012 2061     		str	r0, [r4, #16]
 353 0014 FFF7FEFF 		bl	FLASH_OB_GetUser
 354 0018 2076     		strb	r0, [r4, #24]
 355 001a FFF7FEFF 		bl	FLASH_OB_GetBOR
 356 001e 6061     		str	r0, [r4, #20]
 357 0020 10BD     		pop	{r4, pc}
 359              		.section	.text.FLASH_Erase_Sector,"ax",%progbits
 360              		.align	1
 361              		.global	FLASH_Erase_Sector
 362              		.syntax unified
 363              		.thumb
 364              		.thumb_func
 366              	FLASH_Erase_Sector:
 367              		@ args = 0, pretend = 0, frame = 0
ARM GAS  /tmp/cc2qGP9P.s 			page 7


 368              		@ frame_needed = 0, uses_anonymous_args = 0
 369              		@ link register save eliminated.
 370 0000 0129     		cmp	r1, #1
 371 0002 05D0     		beq	.L64
 372 0004 0229     		cmp	r1, #2
 373 0006 06D0     		beq	.L65
 374 0008 39B1     		cbz	r1, .L63
 375 000a 4FF44071 		mov	r1, #768
 376 000e 04E0     		b	.L63
 377              	.L64:
 378 0010 4FF48071 		mov	r1, #256
 379 0014 01E0     		b	.L63
 380              	.L65:
 381 0016 4FF40071 		mov	r1, #512
 382              	.L63:
 383 001a 0B4B     		ldr	r3, .L67
 384 001c 1A69     		ldr	r2, [r3, #16]
 385 001e 22F44072 		bic	r2, r2, #768
 386 0022 1A61     		str	r2, [r3, #16]
 387 0024 1A69     		ldr	r2, [r3, #16]
 388 0026 0A43     		orrs	r2, r2, r1
 389 0028 1A61     		str	r2, [r3, #16]
 390 002a 1A69     		ldr	r2, [r3, #16]
 391 002c 22F0F802 		bic	r2, r2, #248
 392 0030 1A61     		str	r2, [r3, #16]
 393 0032 1A69     		ldr	r2, [r3, #16]
 394 0034 42EAC000 		orr	r0, r2, r0, lsl #3
 395 0038 40F00200 		orr	r0, r0, #2
 396 003c 1861     		str	r0, [r3, #16]
 397 003e 1A69     		ldr	r2, [r3, #16]
 398 0040 42F48032 		orr	r2, r2, #65536
 399 0044 1A61     		str	r2, [r3, #16]
 400 0046 7047     		bx	lr
 401              	.L68:
 402              		.align	2
 403              	.L67:
 404 0048 003C0240 		.word	1073888256
 406              		.section	.text.HAL_FLASHEx_Erase_IT,"ax",%progbits
 407              		.align	1
 408              		.global	HAL_FLASHEx_Erase_IT
 409              		.syntax unified
 410              		.thumb
 411              		.thumb_func
 413              	HAL_FLASHEx_Erase_IT:
 414              		@ args = 0, pretend = 0, frame = 0
 415              		@ frame_needed = 0, uses_anonymous_args = 0
 416 0000 08B5     		push	{r3, lr}
 417 0002 174B     		ldr	r3, .L75
 418 0004 1B7E     		ldrb	r3, [r3, #24]	@ zero_extendqisi2
 419 0006 012B     		cmp	r3, #1
 420 0008 28D0     		beq	.L72
 421 000a 154B     		ldr	r3, .L75
 422 000c 0122     		movs	r2, #1
 423 000e 1A76     		strb	r2, [r3, #24]
 424 0010 144B     		ldr	r3, .L75+4
 425 0012 1A69     		ldr	r2, [r3, #16]
 426 0014 42F08072 		orr	r2, r2, #16777216
ARM GAS  /tmp/cc2qGP9P.s 			page 8


 427 0018 1A61     		str	r2, [r3, #16]
 428 001a 1A69     		ldr	r2, [r3, #16]
 429 001c 42F00072 		orr	r2, r2, #33554432
 430 0020 1A61     		str	r2, [r3, #16]
 431 0022 F322     		movs	r2, #243
 432 0024 DA60     		str	r2, [r3, #12]
 433 0026 0368     		ldr	r3, [r0]
 434 0028 012B     		cmp	r3, #1
 435 002a 0DD0     		beq	.L74
 436 002c 0C4B     		ldr	r3, .L75
 437 002e 0122     		movs	r2, #1
 438 0030 1A70     		strb	r2, [r3]
 439 0032 C268     		ldr	r2, [r0, #12]
 440 0034 5A60     		str	r2, [r3, #4]
 441 0036 8268     		ldr	r2, [r0, #8]
 442 0038 DA60     		str	r2, [r3, #12]
 443 003a 017C     		ldrb	r1, [r0, #16]	@ zero_extendqisi2
 444 003c 1972     		strb	r1, [r3, #8]
 445 003e 8068     		ldr	r0, [r0, #8]
 446 0040 FFF7FEFF 		bl	FLASH_Erase_Sector
 447 0044 0020     		movs	r0, #0
 448              	.L70:
 449 0046 08BD     		pop	{r3, pc}
 450              	.L74:
 451 0048 054B     		ldr	r3, .L75
 452 004a 0222     		movs	r2, #2
 453 004c 1A70     		strb	r2, [r3]
 454 004e 4168     		ldr	r1, [r0, #4]
 455 0050 1961     		str	r1, [r3, #16]
 456 0052 007C     		ldrb	r0, [r0, #16]	@ zero_extendqisi2
 457 0054 FFF7FEFF 		bl	FLASH_MassErase
 458 0058 0020     		movs	r0, #0
 459 005a F4E7     		b	.L70
 460              	.L72:
 461 005c 0220     		movs	r0, #2
 462 005e F2E7     		b	.L70
 463              	.L76:
 464              		.align	2
 465              	.L75:
 466 0060 00000000 		.word	pFlash
 467 0064 003C0240 		.word	1073888256
 469              		.section	.text.FLASH_FlushCaches,"ax",%progbits
 470              		.align	1
 471              		.global	FLASH_FlushCaches
 472              		.syntax unified
 473              		.thumb
 474              		.thumb_func
 476              	FLASH_FlushCaches:
 477              		@ args = 0, pretend = 0, frame = 0
 478              		@ frame_needed = 0, uses_anonymous_args = 0
 479              		@ link register save eliminated.
 480 0000 164B     		ldr	r3, .L80
 481 0002 1B68     		ldr	r3, [r3]
 482 0004 13F4007F 		tst	r3, #512
 483 0008 10D0     		beq	.L78
 484 000a 144B     		ldr	r3, .L80
 485 000c 1A68     		ldr	r2, [r3]
ARM GAS  /tmp/cc2qGP9P.s 			page 9


 486 000e 22F40072 		bic	r2, r2, #512
 487 0012 1A60     		str	r2, [r3]
 488 0014 1A68     		ldr	r2, [r3]
 489 0016 42F40062 		orr	r2, r2, #2048
 490 001a 1A60     		str	r2, [r3]
 491 001c 1A68     		ldr	r2, [r3]
 492 001e 22F40062 		bic	r2, r2, #2048
 493 0022 1A60     		str	r2, [r3]
 494 0024 1A68     		ldr	r2, [r3]
 495 0026 42F40072 		orr	r2, r2, #512
 496 002a 1A60     		str	r2, [r3]
 497              	.L78:
 498 002c 0B4B     		ldr	r3, .L80
 499 002e 1B68     		ldr	r3, [r3]
 500 0030 13F4806F 		tst	r3, #1024
 501 0034 10D0     		beq	.L77
 502 0036 094B     		ldr	r3, .L80
 503 0038 1A68     		ldr	r2, [r3]
 504 003a 22F48062 		bic	r2, r2, #1024
 505 003e 1A60     		str	r2, [r3]
 506 0040 1A68     		ldr	r2, [r3]
 507 0042 42F48052 		orr	r2, r2, #4096
 508 0046 1A60     		str	r2, [r3]
 509 0048 1A68     		ldr	r2, [r3]
 510 004a 22F48052 		bic	r2, r2, #4096
 511 004e 1A60     		str	r2, [r3]
 512 0050 1A68     		ldr	r2, [r3]
 513 0052 42F48062 		orr	r2, r2, #1024
 514 0056 1A60     		str	r2, [r3]
 515              	.L77:
 516 0058 7047     		bx	lr
 517              	.L81:
 518 005a 00BF     		.align	2
 519              	.L80:
 520 005c 003C0240 		.word	1073888256
 522              		.section	.text.HAL_FLASHEx_Erase,"ax",%progbits
 523              		.align	1
 524              		.global	HAL_FLASHEx_Erase
 525              		.syntax unified
 526              		.thumb
 527              		.thumb_func
 529              	HAL_FLASHEx_Erase:
 530              		@ args = 0, pretend = 0, frame = 0
 531              		@ frame_needed = 0, uses_anonymous_args = 0
 532 0000 F8B5     		push	{r3, r4, r5, r6, r7, lr}
 533 0002 224B     		ldr	r3, .L94
 534 0004 1B7E     		ldrb	r3, [r3, #24]	@ zero_extendqisi2
 535 0006 012B     		cmp	r3, #1
 536 0008 3ED0     		beq	.L90
 537 000a 0446     		mov	r4, r0
 538 000c 0E46     		mov	r6, r1
 539 000e 1F4B     		ldr	r3, .L94
 540 0010 0122     		movs	r2, #1
 541 0012 1A76     		strb	r2, [r3, #24]
 542 0014 4CF25030 		movw	r0, #50000
 543 0018 FFF7FEFF 		bl	FLASH_WaitForLastOperation
 544 001c 0746     		mov	r7, r0
ARM GAS  /tmp/cc2qGP9P.s 			page 10


 545 001e 70BB     		cbnz	r0, .L84
 546 0020 4FF0FF33 		mov	r3, #-1
 547 0024 3360     		str	r3, [r6]
 548 0026 2368     		ldr	r3, [r4]
 549 0028 012B     		cmp	r3, #1
 550 002a 16D0     		beq	.L92
 551 002c A568     		ldr	r5, [r4, #8]
 552              	.L87:
 553 002e E368     		ldr	r3, [r4, #12]
 554 0030 A268     		ldr	r2, [r4, #8]
 555 0032 1344     		add	r3, r3, r2
 556 0034 AB42     		cmp	r3, r5
 557 0036 20D9     		bls	.L86
 558 0038 217C     		ldrb	r1, [r4, #16]	@ zero_extendqisi2
 559 003a 2846     		mov	r0, r5
 560 003c FFF7FEFF 		bl	FLASH_Erase_Sector
 561 0040 4CF25030 		movw	r0, #50000
 562 0044 FFF7FEFF 		bl	FLASH_WaitForLastOperation
 563 0048 114A     		ldr	r2, .L94+4
 564 004a 1369     		ldr	r3, [r2, #16]
 565 004c 23F0FA03 		bic	r3, r3, #250
 566 0050 1361     		str	r3, [r2, #16]
 567 0052 0746     		mov	r7, r0
 568 0054 80B9     		cbnz	r0, .L93
 569 0056 0135     		adds	r5, r5, #1
 570 0058 E9E7     		b	.L87
 571              	.L92:
 572 005a 6168     		ldr	r1, [r4, #4]
 573 005c 207C     		ldrb	r0, [r4, #16]	@ zero_extendqisi2
 574 005e FFF7FEFF 		bl	FLASH_MassErase
 575 0062 4CF25030 		movw	r0, #50000
 576 0066 FFF7FEFF 		bl	FLASH_WaitForLastOperation
 577 006a 0746     		mov	r7, r0
 578 006c 084A     		ldr	r2, .L94+4
 579 006e 1369     		ldr	r3, [r2, #16]
 580 0070 23F00403 		bic	r3, r3, #4
 581 0074 1361     		str	r3, [r2, #16]
 582 0076 00E0     		b	.L86
 583              	.L93:
 584 0078 3560     		str	r5, [r6]
 585              	.L86:
 586 007a FFF7FEFF 		bl	FLASH_FlushCaches
 587              	.L84:
 588 007e 034B     		ldr	r3, .L94
 589 0080 0022     		movs	r2, #0
 590 0082 1A76     		strb	r2, [r3, #24]
 591              	.L83:
 592 0084 3846     		mov	r0, r7
 593 0086 F8BD     		pop	{r3, r4, r5, r6, r7, pc}
 594              	.L90:
 595 0088 0227     		movs	r7, #2
 596 008a FBE7     		b	.L83
 597              	.L95:
 598              		.align	2
 599              	.L94:
 600 008c 00000000 		.word	pFlash
 601 0090 003C0240 		.word	1073888256
ARM GAS  /tmp/cc2qGP9P.s 			page 11


 603              		.ident	"GCC: (Arch Repository) 14.1.0"
ARM GAS  /tmp/cc2qGP9P.s 			page 12

