ARM GAS  /tmp/ccKaebHj.s 			page 1


   1              		.cpu cortex-m4
   2              		.arch armv7e-m
   3              		.fpu fpv4-sp-d16
   4              		.eabi_attribute 27, 1
   5              		.eabi_attribute 28, 1
   6              		.eabi_attribute 23, 1
   7              		.eabi_attribute 24, 1
   8              		.eabi_attribute 25, 1
   9              		.eabi_attribute 26, 1
  10              		.eabi_attribute 30, 2
  11              		.eabi_attribute 34, 1
  12              		.eabi_attribute 18, 4
  13              		.file	"can.c"
  14              		.text
  15              		.section	.text.MX_CAN1_Init,"ax",%progbits
  16              		.align	1
  17              		.p2align 2,,3
  18              		.global	MX_CAN1_Init
  19              		.syntax unified
  20              		.thumb
  21              		.thumb_func
  23              	MX_CAN1_Init:
  24              		@ args = 0, pretend = 0, frame = 0
  25              		@ frame_needed = 0, uses_anonymous_args = 0
  26 0000 10B5     		push	{r4, lr}
  27 0002 0C48     		ldr	r0, .L6
  28 0004 0C4C     		ldr	r4, .L6+4
  29 0006 0622     		movs	r2, #6
  30 0008 0023     		movs	r3, #0
  31 000a C4E90002 		strd	r0, r2, [r4]
  32 000e 4FF40031 		mov	r1, #131072
  33 0012 4FF40012 		mov	r2, #2097152
  34 0016 2046     		mov	r0, r4
  35 0018 C4E90233 		strd	r3, r3, [r4, #8]
  36 001c C4E90412 		strd	r1, r2, [r4, #16]
  37 0020 A361     		str	r3, [r4, #24]
  38 0022 A383     		strh	r3, [r4, #28]	@ movhi
  39 0024 FFF7FEFF 		bl	HAL_CAN_Init
  40 0028 00B9     		cbnz	r0, .L5
  41 002a 10BD     		pop	{r4, pc}
  42              	.L5:
  43 002c BDE81040 		pop	{r4, lr}
  44 0030 FFF7FEBF 		b	Error_Handler
  45              	.L7:
  46              		.align	2
  47              	.L6:
  48 0034 00640040 		.word	1073767424
  49 0038 00000000 		.word	hcan1
  51              		.section	.text.HAL_CAN_MspInit,"ax",%progbits
  52              		.align	1
  53              		.p2align 2,,3
  54              		.global	HAL_CAN_MspInit
  55              		.syntax unified
  56              		.thumb
  57              		.thumb_func
  59              	HAL_CAN_MspInit:
  60              		@ args = 0, pretend = 0, frame = 32
ARM GAS  /tmp/ccKaebHj.s 			page 2


  61              		@ frame_needed = 0, uses_anonymous_args = 0
  62 0000 10B5     		push	{r4, lr}
  63 0002 1B4A     		ldr	r2, .L12+8
  64 0004 0168     		ldr	r1, [r0]
  65 0006 88B0     		sub	sp, sp, #32
  66 0008 0023     		movs	r3, #0
  67 000a 9142     		cmp	r1, r2
  68 000c CDE90233 		strd	r3, r3, [sp, #8]
  69 0010 CDE90433 		strd	r3, r3, [sp, #16]
  70 0014 0693     		str	r3, [sp, #24]
  71 0016 01D0     		beq	.L11
  72 0018 08B0     		add	sp, sp, #32
  73              		@ sp needed
  74 001a 10BD     		pop	{r4, pc}
  75              	.L11:
  76 001c 02F5EA32 		add	r2, r2, #119808
  77 0020 0093     		str	r3, [sp]
  78 0022 106C     		ldr	r0, [r2, #64]
  79 0024 40F00070 		orr	r0, r0, #33554432
  80 0028 1064     		str	r0, [r2, #64]
  81 002a 106C     		ldr	r0, [r2, #64]
  82 002c 00F00070 		and	r0, r0, #33554432
  83 0030 0090     		str	r0, [sp]
  84 0032 0098     		ldr	r0, [sp]
  85 0034 0193     		str	r3, [sp, #4]
  86 0036 136B     		ldr	r3, [r2, #48]
  87 0038 0E48     		ldr	r0, .L12+12
  88 003a 43F00803 		orr	r3, r3, #8
  89 003e 1363     		str	r3, [r2, #48]
  90 0040 136B     		ldr	r3, [r2, #48]
  91 0042 9FED097B 		vldr.64	d7, .L12	@ int
  92 0046 03F00803 		and	r3, r3, #8
  93 004a 0193     		str	r3, [sp, #4]
  94 004c 0322     		movs	r2, #3
  95 004e 0923     		movs	r3, #9
  96 0050 02A9     		add	r1, sp, #8
  97 0052 8DED027B 		vstr.64	d7, [sp, #8]	@ int
  98 0056 CDE90523 		strd	r2, r3, [sp, #20]
  99 005a 019C     		ldr	r4, [sp, #4]
 100 005c FFF7FEFF 		bl	HAL_GPIO_Init
 101 0060 08B0     		add	sp, sp, #32
 102              		@ sp needed
 103 0062 10BD     		pop	{r4, pc}
 104              	.L13:
 105 0064 AFF30080 		.align	3
 106              	.L12:
 107 0068 03000000 		.word	3
 108 006c 02000000 		.word	2
 109 0070 00640040 		.word	1073767424
 110 0074 000C0240 		.word	1073875968
 112              		.section	.text.HAL_CAN_MspDeInit,"ax",%progbits
 113              		.align	1
 114              		.p2align 2,,3
 115              		.global	HAL_CAN_MspDeInit
 116              		.syntax unified
 117              		.thumb
 118              		.thumb_func
ARM GAS  /tmp/ccKaebHj.s 			page 3


 120              	HAL_CAN_MspDeInit:
 121              		@ args = 0, pretend = 0, frame = 0
 122              		@ frame_needed = 0, uses_anonymous_args = 0
 123              		@ link register save eliminated.
 124 0000 064B     		ldr	r3, .L17
 125 0002 0268     		ldr	r2, [r0]
 126 0004 9A42     		cmp	r2, r3
 127 0006 00D0     		beq	.L16
 128 0008 7047     		bx	lr
 129              	.L16:
 130 000a 054A     		ldr	r2, .L17+4
 131 000c 0548     		ldr	r0, .L17+8
 132 000e 136C     		ldr	r3, [r2, #64]
 133 0010 23F00073 		bic	r3, r3, #33554432
 134 0014 0321     		movs	r1, #3
 135 0016 1364     		str	r3, [r2, #64]
 136 0018 FFF7FEBF 		b	HAL_GPIO_DeInit
 137              	.L18:
 138              		.align	2
 139              	.L17:
 140 001c 00640040 		.word	1073767424
 141 0020 00380240 		.word	1073887232
 142 0024 000C0240 		.word	1073875968
 144              		.global	hcan1
 145              		.section	.bss.hcan1,"aw",%nobits
 146              		.align	2
 149              	hcan1:
 150 0000 00000000 		.space	40
 150      00000000 
 150      00000000 
 150      00000000 
 150      00000000 
 151              		.ident	"GCC: (Arch Repository) 14.1.0"
ARM GAS  /tmp/ccKaebHj.s 			page 4

