ARM GAS  /tmp/ccr43cz4.s 			page 1


   1              		.cpu cortex-m4
   2              		.arch armv7e-m
   3              		.fpu fpv4-sp-d16
   4              		.eabi_attribute 27, 1
   5              		.eabi_attribute 28, 1
   6              		.eabi_attribute 23, 1
   7              		.eabi_attribute 24, 1
   8              		.eabi_attribute 25, 1
   9              		.eabi_attribute 26, 1
  10              		.eabi_attribute 30, 2
  11              		.eabi_attribute 34, 1
  12              		.eabi_attribute 18, 4
  13              		.file	"stm32f4xx_it.c"
  14              		.text
  15              		.section	.text.NMI_Handler,"ax",%progbits
  16              		.align	1
  17              		.p2align 2,,3
  18              		.global	NMI_Handler
  19              		.syntax unified
  20              		.thumb
  21              		.thumb_func
  23              	NMI_Handler:
  24              		@ Volatile: function does not return.
  25              		@ args = 0, pretend = 0, frame = 0
  26              		@ frame_needed = 0, uses_anonymous_args = 0
  27              		@ link register save eliminated.
  28              	.L2:
  29 0000 FEE7     		b	.L2
  31 0002 00BF     		.section	.text.HardFault_Handler,"ax",%progbits
  32              		.align	1
  33              		.p2align 2,,3
  34              		.global	HardFault_Handler
  35              		.syntax unified
  36              		.thumb
  37              		.thumb_func
  39              	HardFault_Handler:
  40              		@ Volatile: function does not return.
  41              		@ args = 0, pretend = 0, frame = 0
  42              		@ frame_needed = 0, uses_anonymous_args = 0
  43              		@ link register save eliminated.
  44              	.L5:
  45 0000 FEE7     		b	.L5
  47 0002 00BF     		.section	.text.MemManage_Handler,"ax",%progbits
  48              		.align	1
  49              		.p2align 2,,3
  50              		.global	MemManage_Handler
  51              		.syntax unified
  52              		.thumb
  53              		.thumb_func
  55              	MemManage_Handler:
  56              		@ Volatile: function does not return.
  57              		@ args = 0, pretend = 0, frame = 0
  58              		@ frame_needed = 0, uses_anonymous_args = 0
  59              		@ link register save eliminated.
  60              	.L7:
  61 0000 FEE7     		b	.L7
  63 0002 00BF     		.section	.text.BusFault_Handler,"ax",%progbits
ARM GAS  /tmp/ccr43cz4.s 			page 2


  64              		.align	1
  65              		.p2align 2,,3
  66              		.global	BusFault_Handler
  67              		.syntax unified
  68              		.thumb
  69              		.thumb_func
  71              	BusFault_Handler:
  72              		@ Volatile: function does not return.
  73              		@ args = 0, pretend = 0, frame = 0
  74              		@ frame_needed = 0, uses_anonymous_args = 0
  75              		@ link register save eliminated.
  76              	.L9:
  77 0000 FEE7     		b	.L9
  79 0002 00BF     		.section	.text.UsageFault_Handler,"ax",%progbits
  80              		.align	1
  81              		.p2align 2,,3
  82              		.global	UsageFault_Handler
  83              		.syntax unified
  84              		.thumb
  85              		.thumb_func
  87              	UsageFault_Handler:
  88              		@ Volatile: function does not return.
  89              		@ args = 0, pretend = 0, frame = 0
  90              		@ frame_needed = 0, uses_anonymous_args = 0
  91              		@ link register save eliminated.
  92              	.L11:
  93 0000 FEE7     		b	.L11
  95 0002 00BF     		.section	.text.SVC_Handler,"ax",%progbits
  96              		.align	1
  97              		.p2align 2,,3
  98              		.global	SVC_Handler
  99              		.syntax unified
 100              		.thumb
 101              		.thumb_func
 103              	SVC_Handler:
 104              		@ args = 0, pretend = 0, frame = 0
 105              		@ frame_needed = 0, uses_anonymous_args = 0
 106              		@ link register save eliminated.
 107 0000 7047     		bx	lr
 109 0002 00BF     		.section	.text.DebugMon_Handler,"ax",%progbits
 110              		.align	1
 111              		.p2align 2,,3
 112              		.global	DebugMon_Handler
 113              		.syntax unified
 114              		.thumb
 115              		.thumb_func
 117              	DebugMon_Handler:
 118              		@ args = 0, pretend = 0, frame = 0
 119              		@ frame_needed = 0, uses_anonymous_args = 0
 120              		@ link register save eliminated.
 121 0000 7047     		bx	lr
 123 0002 00BF     		.section	.text.PendSV_Handler,"ax",%progbits
 124              		.align	1
 125              		.p2align 2,,3
 126              		.global	PendSV_Handler
 127              		.syntax unified
 128              		.thumb
ARM GAS  /tmp/ccr43cz4.s 			page 3


 129              		.thumb_func
 131              	PendSV_Handler:
 132              		@ args = 0, pretend = 0, frame = 0
 133              		@ frame_needed = 0, uses_anonymous_args = 0
 134              		@ link register save eliminated.
 135 0000 7047     		bx	lr
 137 0002 00BF     		.section	.text.SysTick_Handler,"ax",%progbits
 138              		.align	1
 139              		.p2align 2,,3
 140              		.global	SysTick_Handler
 141              		.syntax unified
 142              		.thumb
 143              		.thumb_func
 145              	SysTick_Handler:
 146              		@ args = 0, pretend = 0, frame = 0
 147              		@ frame_needed = 0, uses_anonymous_args = 0
 148              		@ link register save eliminated.
 149 0000 FFF7FEBF 		b	HAL_IncTick
 151              		.section	.text.USART1_IRQHandler,"ax",%progbits
 152              		.align	1
 153              		.p2align 2,,3
 154              		.global	USART1_IRQHandler
 155              		.syntax unified
 156              		.thumb
 157              		.thumb_func
 159              	USART1_IRQHandler:
 160              		@ args = 0, pretend = 0, frame = 0
 161              		@ frame_needed = 0, uses_anonymous_args = 0
 162              		@ link register save eliminated.
 163 0000 0148     		ldr	r0, .L17
 164 0002 FFF7FEBF 		b	HAL_UART_IRQHandler
 165              	.L18:
 166 0006 00BF     		.align	2
 167              	.L17:
 168 0008 00000000 		.word	huart1
 170              		.section	.text.TIM7_IRQHandler,"ax",%progbits
 171              		.align	1
 172              		.p2align 2,,3
 173              		.global	TIM7_IRQHandler
 174              		.syntax unified
 175              		.thumb
 176              		.thumb_func
 178              	TIM7_IRQHandler:
 179              		@ args = 0, pretend = 0, frame = 0
 180              		@ frame_needed = 0, uses_anonymous_args = 0
 181              		@ link register save eliminated.
 182 0000 0148     		ldr	r0, .L20
 183 0002 FFF7FEBF 		b	HAL_TIM_IRQHandler
 184              	.L21:
 185 0006 00BF     		.align	2
 186              	.L20:
 187 0008 00000000 		.word	htim7
 189              		.ident	"GCC: (Arch Repository) 14.1.0"
ARM GAS  /tmp/ccr43cz4.s 			page 4

