ARM GAS  /tmp/cc58c9Ir.s 			page 1


   1              		.cpu cortex-m4
   2              		.arch armv7e-m
   3              		.fpu fpv4-sp-d16
   4              		.eabi_attribute 27, 1
   5              		.eabi_attribute 28, 1
   6              		.eabi_attribute 23, 1
   7              		.eabi_attribute 24, 1
   8              		.eabi_attribute 25, 1
   9              		.eabi_attribute 26, 1
  10              		.eabi_attribute 30, 2
  11              		.eabi_attribute 34, 1
  12              		.eabi_attribute 18, 4
  13              		.file	"stm32f4xx_hal_tim.c"
  14              		.text
  15              		.section	.text.HAL_TIM_Base_MspInit,"ax",%progbits
  16              		.align	1
  17              		.p2align 2,,3
  18              		.weak	HAL_TIM_Base_MspInit
  19              		.syntax unified
  20              		.thumb
  21              		.thumb_func
  23              	HAL_TIM_Base_MspInit:
  24              		@ args = 0, pretend = 0, frame = 0
  25              		@ frame_needed = 0, uses_anonymous_args = 0
  26              		@ link register save eliminated.
  27 0000 7047     		bx	lr
  29 0002 00BF     		.section	.text.HAL_TIM_Base_Init,"ax",%progbits
  30              		.align	1
  31              		.p2align 2,,3
  32              		.global	HAL_TIM_Base_Init
  33              		.syntax unified
  34              		.thumb
  35              		.thumb_func
  37              	HAL_TIM_Base_Init:
  38              		@ args = 0, pretend = 0, frame = 0
  39              		@ frame_needed = 0, uses_anonymous_args = 0
  40 0000 0028     		cmp	r0, #0
  41 0002 00F08F80 		beq	.L18
  42 0006 38B5     		push	{r3, r4, r5, lr}
  43 0008 90F83D30 		ldrb	r3, [r0, #61]	@ zero_extendqisi2
  44 000c 0446     		mov	r4, r0
  45 000e 03F0FF02 		and	r2, r3, #255
  46 0012 002B     		cmp	r3, #0
  47 0014 00F08180 		beq	.L29
  48              	.L5:
  49 0018 2268     		ldr	r2, [r4]
  50 001a 4349     		ldr	r1, .L30
  51 001c 0223     		movs	r3, #2
  52 001e 84F83D30 		strb	r3, [r4, #61]
  53 0022 8A42     		cmp	r2, r1
  54 0024 1368     		ldr	r3, [r2]
  55 0026 64D0     		beq	.L6
  56 0028 B2F1804F 		cmp	r2, #1073741824
  57 002c 30D0     		beq	.L7
  58 002e A1F57C41 		sub	r1, r1, #64512
  59 0032 8A42     		cmp	r2, r1
  60 0034 2CD0     		beq	.L7
ARM GAS  /tmp/cc58c9Ir.s 			page 2


  61 0036 01F58061 		add	r1, r1, #1024
  62 003a 8A42     		cmp	r2, r1
  63 003c 28D0     		beq	.L7
  64 003e 01F58061 		add	r1, r1, #1024
  65 0042 8A42     		cmp	r2, r1
  66 0044 24D0     		beq	.L7
  67 0046 01F57841 		add	r1, r1, #63488
  68 004a 8A42     		cmp	r2, r1
  69 004c 51D0     		beq	.L6
  70 004e 3749     		ldr	r1, .L30+4
  71 0050 8A42     		cmp	r2, r1
  72 0052 21D0     		beq	.L13
  73 0054 01F58061 		add	r1, r1, #1024
  74 0058 8A42     		cmp	r2, r1
  75 005a 1DD0     		beq	.L13
  76 005c 01F58061 		add	r1, r1, #1024
  77 0060 8A42     		cmp	r2, r1
  78 0062 19D0     		beq	.L13
  79 0064 A1F59831 		sub	r1, r1, #77824
  80 0068 8A42     		cmp	r2, r1
  81 006a 15D0     		beq	.L13
  82 006c 01F58061 		add	r1, r1, #1024
  83 0070 8A42     		cmp	r2, r1
  84 0072 11D0     		beq	.L13
  85 0074 01F58061 		add	r1, r1, #1024
  86 0078 8A42     		cmp	r2, r1
  87 007a 0DD0     		beq	.L13
  88 007c A569     		ldr	r5, [r4, #24]
  89 007e 6168     		ldr	r1, [r4, #4]
  90 0080 E068     		ldr	r0, [r4, #12]
  91 0082 23F08003 		bic	r3, r3, #128
  92 0086 2B43     		orrs	r3, r3, r5
  93 0088 1360     		str	r3, [r2]
  94 008a D062     		str	r0, [r2, #44]
  95 008c 9162     		str	r1, [r2, #40]
  96 008e 10E0     		b	.L17
  97              	.L7:
  98 0090 A168     		ldr	r1, [r4, #8]
  99 0092 23F07003 		bic	r3, r3, #112
 100 0096 0B43     		orrs	r3, r3, r1
 101              	.L13:
 102 0098 2069     		ldr	r0, [r4, #16]
 103 009a A169     		ldr	r1, [r4, #24]
 104 009c 23F44073 		bic	r3, r3, #768
 105 00a0 0343     		orrs	r3, r3, r0
 106 00a2 23F08003 		bic	r3, r3, #128
 107 00a6 E068     		ldr	r0, [r4, #12]
 108 00a8 0B43     		orrs	r3, r3, r1
 109 00aa 6168     		ldr	r1, [r4, #4]
 110 00ac 1360     		str	r3, [r2]
 111 00ae D062     		str	r0, [r2, #44]
 112 00b0 9162     		str	r1, [r2, #40]
 113              	.L17:
 114 00b2 0123     		movs	r3, #1
 115 00b4 5361     		str	r3, [r2, #20]
 116 00b6 1369     		ldr	r3, [r2, #16]
 117 00b8 DB07     		lsls	r3, r3, #31
ARM GAS  /tmp/cc58c9Ir.s 			page 3


 118 00ba 03D5     		bpl	.L16
 119 00bc 1369     		ldr	r3, [r2, #16]
 120 00be 23F00103 		bic	r3, r3, #1
 121 00c2 1361     		str	r3, [r2, #16]
 122              	.L16:
 123 00c4 0123     		movs	r3, #1
 124 00c6 84F84630 		strb	r3, [r4, #70]
 125 00ca 84F83E30 		strb	r3, [r4, #62]
 126 00ce 84F83F30 		strb	r3, [r4, #63]
 127 00d2 84F84030 		strb	r3, [r4, #64]
 128 00d6 84F84130 		strb	r3, [r4, #65]
 129 00da 84F84230 		strb	r3, [r4, #66]
 130 00de 84F84330 		strb	r3, [r4, #67]
 131 00e2 84F84430 		strb	r3, [r4, #68]
 132 00e6 84F84530 		strb	r3, [r4, #69]
 133 00ea 84F83D30 		strb	r3, [r4, #61]
 134 00ee 0020     		movs	r0, #0
 135 00f0 38BD     		pop	{r3, r4, r5, pc}
 136              	.L6:
 137 00f2 A068     		ldr	r0, [r4, #8]
 138 00f4 2169     		ldr	r1, [r4, #16]
 139 00f6 23F07003 		bic	r3, r3, #112
 140 00fa 0343     		orrs	r3, r3, r0
 141 00fc 23F44073 		bic	r3, r3, #768
 142 0100 0B43     		orrs	r3, r3, r1
 143 0102 A169     		ldr	r1, [r4, #24]
 144 0104 23F08003 		bic	r3, r3, #128
 145 0108 0B43     		orrs	r3, r3, r1
 146 010a 1360     		str	r3, [r2]
 147 010c E368     		ldr	r3, [r4, #12]
 148 010e D362     		str	r3, [r2, #44]
 149 0110 6368     		ldr	r3, [r4, #4]
 150 0112 9362     		str	r3, [r2, #40]
 151 0114 6369     		ldr	r3, [r4, #20]
 152 0116 1363     		str	r3, [r2, #48]
 153 0118 CBE7     		b	.L17
 154              	.L29:
 155 011a 80F83C20 		strb	r2, [r0, #60]
 156 011e FFF7FEFF 		bl	HAL_TIM_Base_MspInit
 157 0122 79E7     		b	.L5
 158              	.L18:
 159 0124 0120     		movs	r0, #1
 160 0126 7047     		bx	lr
 161              	.L31:
 162              		.align	2
 163              	.L30:
 164 0128 00000140 		.word	1073807360
 165 012c 00400140 		.word	1073823744
 167              		.section	.text.HAL_TIM_Base_MspDeInit,"ax",%progbits
 168              		.align	1
 169              		.p2align 2,,3
 170              		.weak	HAL_TIM_Base_MspDeInit
 171              		.syntax unified
 172              		.thumb
 173              		.thumb_func
 175              	HAL_TIM_Base_MspDeInit:
 176              		@ args = 0, pretend = 0, frame = 0
ARM GAS  /tmp/cc58c9Ir.s 			page 4


 177              		@ frame_needed = 0, uses_anonymous_args = 0
 178              		@ link register save eliminated.
 179 0000 7047     		bx	lr
 181 0002 00BF     		.section	.text.HAL_TIM_Base_DeInit,"ax",%progbits
 182              		.align	1
 183              		.p2align 2,,3
 184              		.global	HAL_TIM_Base_DeInit
 185              		.syntax unified
 186              		.thumb
 187              		.thumb_func
 189              	HAL_TIM_Base_DeInit:
 190              		@ args = 0, pretend = 0, frame = 0
 191              		@ frame_needed = 0, uses_anonymous_args = 0
 192 0000 0222     		movs	r2, #2
 193 0002 0368     		ldr	r3, [r0]
 194 0004 10B5     		push	{r4, lr}
 195 0006 80F83D20 		strb	r2, [r0, #61]
 196 000a 196A     		ldr	r1, [r3, #32]
 197 000c 41F21112 		movw	r2, #4369
 198 0010 1142     		tst	r1, r2
 199 0012 0446     		mov	r4, r0
 200 0014 08D1     		bne	.L34
 201 0016 196A     		ldr	r1, [r3, #32]
 202 0018 40F24442 		movw	r2, #1092
 203 001c 1142     		tst	r1, r2
 204 001e 03D1     		bne	.L34
 205 0020 1A68     		ldr	r2, [r3]
 206 0022 22F00102 		bic	r2, r2, #1
 207 0026 1A60     		str	r2, [r3]
 208              	.L34:
 209 0028 2046     		mov	r0, r4
 210 002a FFF7FEFF 		bl	HAL_TIM_Base_MspDeInit
 211 002e 0020     		movs	r0, #0
 212 0030 84F84600 		strb	r0, [r4, #70]
 213 0034 84F83C00 		strb	r0, [r4, #60]
 214 0038 84F83E00 		strb	r0, [r4, #62]
 215 003c 84F83F00 		strb	r0, [r4, #63]
 216 0040 84F84000 		strb	r0, [r4, #64]
 217 0044 84F84100 		strb	r0, [r4, #65]
 218 0048 84F84200 		strb	r0, [r4, #66]
 219 004c 84F84300 		strb	r0, [r4, #67]
 220 0050 84F84400 		strb	r0, [r4, #68]
 221 0054 84F84500 		strb	r0, [r4, #69]
 222 0058 84F83D00 		strb	r0, [r4, #61]
 223 005c 10BD     		pop	{r4, pc}
 225 005e 00BF     		.section	.text.HAL_TIM_Base_Start,"ax",%progbits
 226              		.align	1
 227              		.p2align 2,,3
 228              		.global	HAL_TIM_Base_Start
 229              		.syntax unified
 230              		.thumb
 231              		.thumb_func
 233              	HAL_TIM_Base_Start:
 234              		@ args = 0, pretend = 0, frame = 0
 235              		@ frame_needed = 0, uses_anonymous_args = 0
 236              		@ link register save eliminated.
 237 0000 90F83D30 		ldrb	r3, [r0, #61]	@ zero_extendqisi2
ARM GAS  /tmp/cc58c9Ir.s 			page 5


 238 0004 012B     		cmp	r3, #1
 239 0006 2CD1     		bne	.L41
 240 0008 0368     		ldr	r3, [r0]
 241 000a 174A     		ldr	r2, .L49
 242 000c 0221     		movs	r1, #2
 243 000e 9342     		cmp	r3, r2
 244 0010 80F83D10 		strb	r1, [r0, #61]
 245 0014 1AD0     		beq	.L38
 246 0016 B3F1804F 		cmp	r3, #1073741824
 247 001a 17D0     		beq	.L38
 248 001c A2F57C42 		sub	r2, r2, #64512
 249 0020 9342     		cmp	r3, r2
 250 0022 13D0     		beq	.L38
 251 0024 02F58062 		add	r2, r2, #1024
 252 0028 9342     		cmp	r3, r2
 253 002a 0FD0     		beq	.L38
 254 002c 02F58062 		add	r2, r2, #1024
 255 0030 9342     		cmp	r3, r2
 256 0032 0BD0     		beq	.L38
 257 0034 02F57842 		add	r2, r2, #63488
 258 0038 9342     		cmp	r3, r2
 259 003a 07D0     		beq	.L38
 260 003c 02F57052 		add	r2, r2, #15360
 261 0040 9342     		cmp	r3, r2
 262 0042 03D0     		beq	.L38
 263 0044 A2F59432 		sub	r2, r2, #75776
 264 0048 9342     		cmp	r3, r2
 265 004a 04D1     		bne	.L48
 266              	.L38:
 267 004c 9A68     		ldr	r2, [r3, #8]
 268 004e 02F00702 		and	r2, r2, #7
 269 0052 062A     		cmp	r2, #6
 270 0054 03D0     		beq	.L40
 271              	.L48:
 272 0056 1A68     		ldr	r2, [r3]
 273 0058 42F00102 		orr	r2, r2, #1
 274 005c 1A60     		str	r2, [r3]
 275              	.L40:
 276 005e 0020     		movs	r0, #0
 277 0060 7047     		bx	lr
 278              	.L41:
 279 0062 0120     		movs	r0, #1
 280 0064 7047     		bx	lr
 281              	.L50:
 282 0066 00BF     		.align	2
 283              	.L49:
 284 0068 00000140 		.word	1073807360
 286              		.section	.text.HAL_TIM_Base_Stop,"ax",%progbits
 287              		.align	1
 288              		.p2align 2,,3
 289              		.global	HAL_TIM_Base_Stop
 290              		.syntax unified
 291              		.thumb
 292              		.thumb_func
 294              	HAL_TIM_Base_Stop:
 295              		@ args = 0, pretend = 0, frame = 0
 296              		@ frame_needed = 0, uses_anonymous_args = 0
ARM GAS  /tmp/cc58c9Ir.s 			page 6


 297              		@ link register save eliminated.
 298 0000 0368     		ldr	r3, [r0]
 299 0002 196A     		ldr	r1, [r3, #32]
 300 0004 41F21112 		movw	r2, #4369
 301 0008 1142     		tst	r1, r2
 302 000a 08D1     		bne	.L52
 303 000c 196A     		ldr	r1, [r3, #32]
 304 000e 40F24442 		movw	r2, #1092
 305 0012 1142     		tst	r1, r2
 306 0014 03D1     		bne	.L52
 307 0016 1A68     		ldr	r2, [r3]
 308 0018 22F00102 		bic	r2, r2, #1
 309 001c 1A60     		str	r2, [r3]
 310              	.L52:
 311 001e 0123     		movs	r3, #1
 312 0020 80F83D30 		strb	r3, [r0, #61]
 313 0024 0020     		movs	r0, #0
 314 0026 7047     		bx	lr
 316              		.section	.text.HAL_TIM_Base_Start_IT,"ax",%progbits
 317              		.align	1
 318              		.p2align 2,,3
 319              		.global	HAL_TIM_Base_Start_IT
 320              		.syntax unified
 321              		.thumb
 322              		.thumb_func
 324              	HAL_TIM_Base_Start_IT:
 325              		@ args = 0, pretend = 0, frame = 0
 326              		@ frame_needed = 0, uses_anonymous_args = 0
 327              		@ link register save eliminated.
 328 0000 90F83D30 		ldrb	r3, [r0, #61]	@ zero_extendqisi2
 329 0004 012B     		cmp	r3, #1
 330 0006 2FD1     		bne	.L58
 331 0008 0368     		ldr	r3, [r0]
 332 000a 1849     		ldr	r1, .L66
 333 000c 0222     		movs	r2, #2
 334 000e 80F83D20 		strb	r2, [r0, #61]
 335 0012 DA68     		ldr	r2, [r3, #12]
 336 0014 8B42     		cmp	r3, r1
 337 0016 42F00102 		orr	r2, r2, #1
 338 001a DA60     		str	r2, [r3, #12]
 339 001c 19D0     		beq	.L55
 340 001e B3F1804F 		cmp	r3, #1073741824
 341 0022 16D0     		beq	.L55
 342 0024 124A     		ldr	r2, .L66+4
 343 0026 9342     		cmp	r3, r2
 344 0028 13D0     		beq	.L55
 345 002a 02F58062 		add	r2, r2, #1024
 346 002e 9342     		cmp	r3, r2
 347 0030 0FD0     		beq	.L55
 348 0032 02F58062 		add	r2, r2, #1024
 349 0036 9342     		cmp	r3, r2
 350 0038 0BD0     		beq	.L55
 351 003a 02F57842 		add	r2, r2, #63488
 352 003e 9342     		cmp	r3, r2
 353 0040 07D0     		beq	.L55
 354 0042 02F57052 		add	r2, r2, #15360
 355 0046 9342     		cmp	r3, r2
ARM GAS  /tmp/cc58c9Ir.s 			page 7


 356 0048 03D0     		beq	.L55
 357 004a A2F59432 		sub	r2, r2, #75776
 358 004e 9342     		cmp	r3, r2
 359 0050 04D1     		bne	.L65
 360              	.L55:
 361 0052 9A68     		ldr	r2, [r3, #8]
 362 0054 02F00702 		and	r2, r2, #7
 363 0058 062A     		cmp	r2, #6
 364 005a 03D0     		beq	.L57
 365              	.L65:
 366 005c 1A68     		ldr	r2, [r3]
 367 005e 42F00102 		orr	r2, r2, #1
 368 0062 1A60     		str	r2, [r3]
 369              	.L57:
 370 0064 0020     		movs	r0, #0
 371 0066 7047     		bx	lr
 372              	.L58:
 373 0068 0120     		movs	r0, #1
 374 006a 7047     		bx	lr
 375              	.L67:
 376              		.align	2
 377              	.L66:
 378 006c 00000140 		.word	1073807360
 379 0070 00040040 		.word	1073742848
 381              		.section	.text.HAL_TIM_Base_Stop_IT,"ax",%progbits
 382              		.align	1
 383              		.p2align 2,,3
 384              		.global	HAL_TIM_Base_Stop_IT
 385              		.syntax unified
 386              		.thumb
 387              		.thumb_func
 389              	HAL_TIM_Base_Stop_IT:
 390              		@ args = 0, pretend = 0, frame = 0
 391              		@ frame_needed = 0, uses_anonymous_args = 0
 392              		@ link register save eliminated.
 393 0000 0368     		ldr	r3, [r0]
 394 0002 DA68     		ldr	r2, [r3, #12]
 395 0004 22F00102 		bic	r2, r2, #1
 396 0008 DA60     		str	r2, [r3, #12]
 397 000a 1A6A     		ldr	r2, [r3, #32]
 398 000c 41F21111 		movw	r1, #4369
 399 0010 0A42     		tst	r2, r1
 400 0012 08D1     		bne	.L69
 401 0014 196A     		ldr	r1, [r3, #32]
 402 0016 40F24442 		movw	r2, #1092
 403 001a 1142     		tst	r1, r2
 404 001c 03D1     		bne	.L69
 405 001e 1A68     		ldr	r2, [r3]
 406 0020 22F00102 		bic	r2, r2, #1
 407 0024 1A60     		str	r2, [r3]
 408              	.L69:
 409 0026 0123     		movs	r3, #1
 410 0028 80F83D30 		strb	r3, [r0, #61]
 411 002c 0020     		movs	r0, #0
 412 002e 7047     		bx	lr
 414              		.section	.text.HAL_TIM_Base_Start_DMA,"ax",%progbits
 415              		.align	1
ARM GAS  /tmp/cc58c9Ir.s 			page 8


 416              		.p2align 2,,3
 417              		.global	HAL_TIM_Base_Start_DMA
 418              		.syntax unified
 419              		.thumb
 420              		.thumb_func
 422              	HAL_TIM_Base_Start_DMA:
 423              		@ args = 0, pretend = 0, frame = 0
 424              		@ frame_needed = 0, uses_anonymous_args = 0
 425 0000 38B5     		push	{r3, r4, r5, lr}
 426 0002 90F83DC0 		ldrb	ip, [r0, #61]	@ zero_extendqisi2
 427 0006 BCF1020F 		cmp	ip, #2
 428 000a 0446     		mov	r4, r0
 429 000c 5FFA8CF0 		uxtb	r0, ip
 430 0010 06D0     		beq	.L71
 431 0012 94F83D00 		ldrb	r0, [r4, #61]	@ zero_extendqisi2
 432 0016 0128     		cmp	r0, #1
 433 0018 01D1     		bne	.L73
 434 001a 01B1     		cbz	r1, .L73
 435 001c 0AB9     		cbnz	r2, .L93
 436              	.L73:
 437 001e 0120     		movs	r0, #1
 438              	.L71:
 439 0020 38BD     		pop	{r3, r4, r5, pc}
 440              	.L93:
 441 0022 206A     		ldr	r0, [r4, #32]
 442 0024 1D4D     		ldr	r5, .L94
 443 0026 0223     		movs	r3, #2
 444 0028 84F83D30 		strb	r3, [r4, #61]
 445 002c 1346     		mov	r3, r2
 446 002e 1C4A     		ldr	r2, .L94+4
 447 0030 0264     		str	r2, [r0, #64]
 448 0032 1C4A     		ldr	r2, .L94+8
 449 0034 C264     		str	r2, [r0, #76]
 450 0036 2268     		ldr	r2, [r4]
 451 0038 C563     		str	r5, [r0, #60]
 452 003a 2C32     		adds	r2, r2, #44
 453 003c FFF7FEFF 		bl	HAL_DMA_Start_IT
 454 0040 0028     		cmp	r0, #0
 455 0042 ECD1     		bne	.L73
 456 0044 2368     		ldr	r3, [r4]
 457 0046 1849     		ldr	r1, .L94+12
 458 0048 DA68     		ldr	r2, [r3, #12]
 459 004a 8B42     		cmp	r3, r1
 460 004c 42F48072 		orr	r2, r2, #256
 461 0050 DA60     		str	r2, [r3, #12]
 462 0052 19D0     		beq	.L74
 463 0054 B3F1804F 		cmp	r3, #1073741824
 464 0058 16D0     		beq	.L74
 465 005a 144A     		ldr	r2, .L94+16
 466 005c 9342     		cmp	r3, r2
 467 005e 13D0     		beq	.L74
 468 0060 02F58062 		add	r2, r2, #1024
 469 0064 9342     		cmp	r3, r2
 470 0066 0FD0     		beq	.L74
 471 0068 02F58062 		add	r2, r2, #1024
 472 006c 9342     		cmp	r3, r2
 473 006e 0BD0     		beq	.L74
ARM GAS  /tmp/cc58c9Ir.s 			page 9


 474 0070 02F57842 		add	r2, r2, #63488
 475 0074 9342     		cmp	r3, r2
 476 0076 07D0     		beq	.L74
 477 0078 02F57052 		add	r2, r2, #15360
 478 007c 9342     		cmp	r3, r2
 479 007e 03D0     		beq	.L74
 480 0080 A2F59432 		sub	r2, r2, #75776
 481 0084 9342     		cmp	r3, r2
 482 0086 04D1     		bne	.L75
 483              	.L74:
 484 0088 9A68     		ldr	r2, [r3, #8]
 485 008a 02F00702 		and	r2, r2, #7
 486 008e 062A     		cmp	r2, #6
 487 0090 C6D0     		beq	.L71
 488              	.L75:
 489 0092 1A68     		ldr	r2, [r3]
 490 0094 42F00102 		orr	r2, r2, #1
 491 0098 1A60     		str	r2, [r3]
 492 009a 38BD     		pop	{r3, r4, r5, pc}
 493              	.L95:
 494              		.align	2
 495              	.L94:
 496 009c 00000000 		.word	TIM_DMAPeriodElapsedCplt
 497 00a0 00000000 		.word	TIM_DMAPeriodElapsedHalfCplt
 498 00a4 00000000 		.word	TIM_DMAError
 499 00a8 00000140 		.word	1073807360
 500 00ac 00040040 		.word	1073742848
 502              		.section	.text.HAL_TIM_Base_Stop_DMA,"ax",%progbits
 503              		.align	1
 504              		.p2align 2,,3
 505              		.global	HAL_TIM_Base_Stop_DMA
 506              		.syntax unified
 507              		.thumb
 508              		.thumb_func
 510              	HAL_TIM_Base_Stop_DMA:
 511              		@ args = 0, pretend = 0, frame = 0
 512              		@ frame_needed = 0, uses_anonymous_args = 0
 513 0000 0268     		ldr	r2, [r0]
 514 0002 D368     		ldr	r3, [r2, #12]
 515 0004 10B5     		push	{r4, lr}
 516 0006 23F48073 		bic	r3, r3, #256
 517 000a 0446     		mov	r4, r0
 518 000c 006A     		ldr	r0, [r0, #32]
 519 000e D360     		str	r3, [r2, #12]
 520 0010 FFF7FEFF 		bl	HAL_DMA_Abort_IT
 521 0014 2368     		ldr	r3, [r4]
 522 0016 196A     		ldr	r1, [r3, #32]
 523 0018 41F21112 		movw	r2, #4369
 524 001c 1142     		tst	r1, r2
 525 001e 08D1     		bne	.L97
 526 0020 196A     		ldr	r1, [r3, #32]
 527 0022 40F24442 		movw	r2, #1092
 528 0026 1142     		tst	r1, r2
 529 0028 03D1     		bne	.L97
 530 002a 1A68     		ldr	r2, [r3]
 531 002c 22F00102 		bic	r2, r2, #1
 532 0030 1A60     		str	r2, [r3]
ARM GAS  /tmp/cc58c9Ir.s 			page 10


 533              	.L97:
 534 0032 0123     		movs	r3, #1
 535 0034 84F83D30 		strb	r3, [r4, #61]
 536 0038 0020     		movs	r0, #0
 537 003a 10BD     		pop	{r4, pc}
 539              		.section	.text.HAL_TIM_OC_MspInit,"ax",%progbits
 540              		.align	1
 541              		.p2align 2,,3
 542              		.weak	HAL_TIM_OC_MspInit
 543              		.syntax unified
 544              		.thumb
 545              		.thumb_func
 547              	HAL_TIM_OC_MspInit:
 548              		@ args = 0, pretend = 0, frame = 0
 549              		@ frame_needed = 0, uses_anonymous_args = 0
 550              		@ link register save eliminated.
 551 0000 7047     		bx	lr
 553 0002 00BF     		.section	.text.HAL_TIM_OC_Init,"ax",%progbits
 554              		.align	1
 555              		.p2align 2,,3
 556              		.global	HAL_TIM_OC_Init
 557              		.syntax unified
 558              		.thumb
 559              		.thumb_func
 561              	HAL_TIM_OC_Init:
 562              		@ args = 0, pretend = 0, frame = 0
 563              		@ frame_needed = 0, uses_anonymous_args = 0
 564 0000 0028     		cmp	r0, #0
 565 0002 00F08F80 		beq	.L115
 566 0006 38B5     		push	{r3, r4, r5, lr}
 567 0008 90F83D30 		ldrb	r3, [r0, #61]	@ zero_extendqisi2
 568 000c 0446     		mov	r4, r0
 569 000e 03F0FF02 		and	r2, r3, #255
 570 0012 002B     		cmp	r3, #0
 571 0014 00F08180 		beq	.L126
 572              	.L102:
 573 0018 2268     		ldr	r2, [r4]
 574 001a 4349     		ldr	r1, .L127
 575 001c 0223     		movs	r3, #2
 576 001e 84F83D30 		strb	r3, [r4, #61]
 577 0022 8A42     		cmp	r2, r1
 578 0024 1368     		ldr	r3, [r2]
 579 0026 64D0     		beq	.L103
 580 0028 B2F1804F 		cmp	r2, #1073741824
 581 002c 30D0     		beq	.L104
 582 002e A1F57C41 		sub	r1, r1, #64512
 583 0032 8A42     		cmp	r2, r1
 584 0034 2CD0     		beq	.L104
 585 0036 01F58061 		add	r1, r1, #1024
 586 003a 8A42     		cmp	r2, r1
 587 003c 28D0     		beq	.L104
 588 003e 01F58061 		add	r1, r1, #1024
 589 0042 8A42     		cmp	r2, r1
 590 0044 24D0     		beq	.L104
 591 0046 01F57841 		add	r1, r1, #63488
 592 004a 8A42     		cmp	r2, r1
 593 004c 51D0     		beq	.L103
ARM GAS  /tmp/cc58c9Ir.s 			page 11


 594 004e 3749     		ldr	r1, .L127+4
 595 0050 8A42     		cmp	r2, r1
 596 0052 21D0     		beq	.L110
 597 0054 01F58061 		add	r1, r1, #1024
 598 0058 8A42     		cmp	r2, r1
 599 005a 1DD0     		beq	.L110
 600 005c 01F58061 		add	r1, r1, #1024
 601 0060 8A42     		cmp	r2, r1
 602 0062 19D0     		beq	.L110
 603 0064 A1F59831 		sub	r1, r1, #77824
 604 0068 8A42     		cmp	r2, r1
 605 006a 15D0     		beq	.L110
 606 006c 01F58061 		add	r1, r1, #1024
 607 0070 8A42     		cmp	r2, r1
 608 0072 11D0     		beq	.L110
 609 0074 01F58061 		add	r1, r1, #1024
 610 0078 8A42     		cmp	r2, r1
 611 007a 0DD0     		beq	.L110
 612 007c A569     		ldr	r5, [r4, #24]
 613 007e 6168     		ldr	r1, [r4, #4]
 614 0080 E068     		ldr	r0, [r4, #12]
 615 0082 23F08003 		bic	r3, r3, #128
 616 0086 2B43     		orrs	r3, r3, r5
 617 0088 1360     		str	r3, [r2]
 618 008a D062     		str	r0, [r2, #44]
 619 008c 9162     		str	r1, [r2, #40]
 620 008e 10E0     		b	.L114
 621              	.L104:
 622 0090 A168     		ldr	r1, [r4, #8]
 623 0092 23F07003 		bic	r3, r3, #112
 624 0096 0B43     		orrs	r3, r3, r1
 625              	.L110:
 626 0098 2069     		ldr	r0, [r4, #16]
 627 009a A169     		ldr	r1, [r4, #24]
 628 009c 23F44073 		bic	r3, r3, #768
 629 00a0 0343     		orrs	r3, r3, r0
 630 00a2 23F08003 		bic	r3, r3, #128
 631 00a6 E068     		ldr	r0, [r4, #12]
 632 00a8 0B43     		orrs	r3, r3, r1
 633 00aa 6168     		ldr	r1, [r4, #4]
 634 00ac 1360     		str	r3, [r2]
 635 00ae D062     		str	r0, [r2, #44]
 636 00b0 9162     		str	r1, [r2, #40]
 637              	.L114:
 638 00b2 0123     		movs	r3, #1
 639 00b4 5361     		str	r3, [r2, #20]
 640 00b6 1369     		ldr	r3, [r2, #16]
 641 00b8 DB07     		lsls	r3, r3, #31
 642 00ba 03D5     		bpl	.L113
 643 00bc 1369     		ldr	r3, [r2, #16]
 644 00be 23F00103 		bic	r3, r3, #1
 645 00c2 1361     		str	r3, [r2, #16]
 646              	.L113:
 647 00c4 0123     		movs	r3, #1
 648 00c6 84F84630 		strb	r3, [r4, #70]
 649 00ca 84F83E30 		strb	r3, [r4, #62]
 650 00ce 84F83F30 		strb	r3, [r4, #63]
ARM GAS  /tmp/cc58c9Ir.s 			page 12


 651 00d2 84F84030 		strb	r3, [r4, #64]
 652 00d6 84F84130 		strb	r3, [r4, #65]
 653 00da 84F84230 		strb	r3, [r4, #66]
 654 00de 84F84330 		strb	r3, [r4, #67]
 655 00e2 84F84430 		strb	r3, [r4, #68]
 656 00e6 84F84530 		strb	r3, [r4, #69]
 657 00ea 84F83D30 		strb	r3, [r4, #61]
 658 00ee 0020     		movs	r0, #0
 659 00f0 38BD     		pop	{r3, r4, r5, pc}
 660              	.L103:
 661 00f2 A068     		ldr	r0, [r4, #8]
 662 00f4 2169     		ldr	r1, [r4, #16]
 663 00f6 23F07003 		bic	r3, r3, #112
 664 00fa 0343     		orrs	r3, r3, r0
 665 00fc 23F44073 		bic	r3, r3, #768
 666 0100 0B43     		orrs	r3, r3, r1
 667 0102 A169     		ldr	r1, [r4, #24]
 668 0104 23F08003 		bic	r3, r3, #128
 669 0108 0B43     		orrs	r3, r3, r1
 670 010a 1360     		str	r3, [r2]
 671 010c E368     		ldr	r3, [r4, #12]
 672 010e D362     		str	r3, [r2, #44]
 673 0110 6368     		ldr	r3, [r4, #4]
 674 0112 9362     		str	r3, [r2, #40]
 675 0114 6369     		ldr	r3, [r4, #20]
 676 0116 1363     		str	r3, [r2, #48]
 677 0118 CBE7     		b	.L114
 678              	.L126:
 679 011a 80F83C20 		strb	r2, [r0, #60]
 680 011e FFF7FEFF 		bl	HAL_TIM_OC_MspInit
 681 0122 79E7     		b	.L102
 682              	.L115:
 683 0124 0120     		movs	r0, #1
 684 0126 7047     		bx	lr
 685              	.L128:
 686              		.align	2
 687              	.L127:
 688 0128 00000140 		.word	1073807360
 689 012c 00400140 		.word	1073823744
 691              		.section	.text.HAL_TIM_OC_MspDeInit,"ax",%progbits
 692              		.align	1
 693              		.p2align 2,,3
 694              		.weak	HAL_TIM_OC_MspDeInit
 695              		.syntax unified
 696              		.thumb
 697              		.thumb_func
 699              	HAL_TIM_OC_MspDeInit:
 700              		@ args = 0, pretend = 0, frame = 0
 701              		@ frame_needed = 0, uses_anonymous_args = 0
 702              		@ link register save eliminated.
 703 0000 7047     		bx	lr
 705 0002 00BF     		.section	.text.HAL_TIM_OC_DeInit,"ax",%progbits
 706              		.align	1
 707              		.p2align 2,,3
 708              		.global	HAL_TIM_OC_DeInit
 709              		.syntax unified
 710              		.thumb
ARM GAS  /tmp/cc58c9Ir.s 			page 13


 711              		.thumb_func
 713              	HAL_TIM_OC_DeInit:
 714              		@ args = 0, pretend = 0, frame = 0
 715              		@ frame_needed = 0, uses_anonymous_args = 0
 716 0000 0222     		movs	r2, #2
 717 0002 0368     		ldr	r3, [r0]
 718 0004 10B5     		push	{r4, lr}
 719 0006 80F83D20 		strb	r2, [r0, #61]
 720 000a 196A     		ldr	r1, [r3, #32]
 721 000c 41F21112 		movw	r2, #4369
 722 0010 1142     		tst	r1, r2
 723 0012 0446     		mov	r4, r0
 724 0014 08D1     		bne	.L131
 725 0016 196A     		ldr	r1, [r3, #32]
 726 0018 40F24442 		movw	r2, #1092
 727 001c 1142     		tst	r1, r2
 728 001e 03D1     		bne	.L131
 729 0020 1A68     		ldr	r2, [r3]
 730 0022 22F00102 		bic	r2, r2, #1
 731 0026 1A60     		str	r2, [r3]
 732              	.L131:
 733 0028 2046     		mov	r0, r4
 734 002a FFF7FEFF 		bl	HAL_TIM_OC_MspDeInit
 735 002e 0020     		movs	r0, #0
 736 0030 84F84600 		strb	r0, [r4, #70]
 737 0034 84F83C00 		strb	r0, [r4, #60]
 738 0038 84F83E00 		strb	r0, [r4, #62]
 739 003c 84F83F00 		strb	r0, [r4, #63]
 740 0040 84F84000 		strb	r0, [r4, #64]
 741 0044 84F84100 		strb	r0, [r4, #65]
 742 0048 84F84200 		strb	r0, [r4, #66]
 743 004c 84F84300 		strb	r0, [r4, #67]
 744 0050 84F84400 		strb	r0, [r4, #68]
 745 0054 84F84500 		strb	r0, [r4, #69]
 746 0058 84F83D00 		strb	r0, [r4, #61]
 747 005c 10BD     		pop	{r4, pc}
 749 005e 00BF     		.section	.text.HAL_TIM_OC_Start,"ax",%progbits
 750              		.align	1
 751              		.p2align 2,,3
 752              		.global	HAL_TIM_OC_Start
 753              		.syntax unified
 754              		.thumb
 755              		.thumb_func
 757              	HAL_TIM_OC_Start:
 758              		@ args = 0, pretend = 0, frame = 0
 759              		@ frame_needed = 0, uses_anonymous_args = 0
 760              		@ link register save eliminated.
 761 0000 69BB     		cbnz	r1, .L134
 762 0002 90F83E30 		ldrb	r3, [r0, #62]	@ zero_extendqisi2
 763 0006 012B     		cmp	r3, #1
 764 0008 35D1     		bne	.L154
 765 000a 0223     		movs	r3, #2
 766 000c 80F83E30 		strb	r3, [r0, #62]
 767              	.L142:
 768 0010 0368     		ldr	r3, [r0]
 769 0012 01F01F01 		and	r1, r1, #31
 770 0016 186A     		ldr	r0, [r3, #32]
ARM GAS  /tmp/cc58c9Ir.s 			page 14


 771 0018 0122     		movs	r2, #1
 772 001a 8A40     		lsls	r2, r2, r1
 773 001c 20EA0200 		bic	r0, r0, r2
 774 0020 1862     		str	r0, [r3, #32]
 775 0022 186A     		ldr	r0, [r3, #32]
 776 0024 2549     		ldr	r1, .L173
 777 0026 0243     		orrs	r2, r2, r0
 778 0028 8B42     		cmp	r3, r1
 779 002a 1A62     		str	r2, [r3, #32]
 780 002c 25D0     		beq	.L143
 781 002e 244A     		ldr	r2, .L173+4
 782 0030 9342     		cmp	r3, r2
 783 0032 22D0     		beq	.L143
 784 0034 B3F1804F 		cmp	r3, #1073741824
 785 0038 06D0     		beq	.L145
 786 003a 224A     		ldr	r2, .L173+8
 787 003c 9342     		cmp	r3, r2
 788 003e 03D0     		beq	.L145
 789 0040 02F58062 		add	r2, r2, #1024
 790 0044 9342     		cmp	r3, r2
 791 0046 2DD1     		bne	.L170
 792              	.L145:
 793 0048 9A68     		ldr	r2, [r3, #8]
 794 004a 02F00702 		and	r2, r2, #7
 795 004e 062A     		cmp	r2, #6
 796 0050 03D0     		beq	.L149
 797              	.L169:
 798 0052 1A68     		ldr	r2, [r3]
 799 0054 42F00102 		orr	r2, r2, #1
 800 0058 1A60     		str	r2, [r3]
 801              	.L149:
 802 005a 0020     		movs	r0, #0
 803 005c 7047     		bx	lr
 804              	.L134:
 805 005e 0429     		cmp	r1, #4
 806 0060 10D0     		beq	.L171
 807 0062 0829     		cmp	r1, #8
 808 0064 16D0     		beq	.L172
 809 0066 90F84130 		ldrb	r3, [r0, #65]	@ zero_extendqisi2
 810 006a 012B     		cmp	r3, #1
 811 006c 03D1     		bne	.L154
 812 006e 0223     		movs	r3, #2
 813 0070 80F84130 		strb	r3, [r0, #65]
 814 0074 CCE7     		b	.L142
 815              	.L154:
 816 0076 0120     		movs	r0, #1
 817 0078 7047     		bx	lr
 818              	.L143:
 819 007a 5A6C     		ldr	r2, [r3, #68]
 820 007c 42F40042 		orr	r2, r2, #32768
 821 0080 5A64     		str	r2, [r3, #68]
 822 0082 E1E7     		b	.L145
 823              	.L171:
 824 0084 90F83F30 		ldrb	r3, [r0, #63]	@ zero_extendqisi2
 825 0088 012B     		cmp	r3, #1
 826 008a F4D1     		bne	.L154
 827 008c 0223     		movs	r3, #2
ARM GAS  /tmp/cc58c9Ir.s 			page 15


 828 008e 80F83F30 		strb	r3, [r0, #63]
 829 0092 BDE7     		b	.L142
 830              	.L172:
 831 0094 90F84030 		ldrb	r3, [r0, #64]	@ zero_extendqisi2
 832 0098 012B     		cmp	r3, #1
 833 009a ECD1     		bne	.L154
 834 009c 0223     		movs	r3, #2
 835 009e 80F84030 		strb	r3, [r0, #64]
 836 00a2 B5E7     		b	.L142
 837              	.L170:
 838 00a4 084A     		ldr	r2, .L173+12
 839 00a6 9342     		cmp	r3, r2
 840 00a8 CED0     		beq	.L145
 841 00aa 084A     		ldr	r2, .L173+16
 842 00ac 9342     		cmp	r3, r2
 843 00ae CBD0     		beq	.L145
 844 00b0 A2F59432 		sub	r2, r2, #75776
 845 00b4 9342     		cmp	r3, r2
 846 00b6 CCD1     		bne	.L169
 847 00b8 C6E7     		b	.L145
 848              	.L174:
 849 00ba 00BF     		.align	2
 850              	.L173:
 851 00bc 00000140 		.word	1073807360
 852 00c0 00040140 		.word	1073808384
 853 00c4 00040040 		.word	1073742848
 854 00c8 000C0040 		.word	1073744896
 855 00cc 00400140 		.word	1073823744
 857              		.section	.text.HAL_TIM_OC_Stop,"ax",%progbits
 858              		.align	1
 859              		.p2align 2,,3
 860              		.global	HAL_TIM_OC_Stop
 861              		.syntax unified
 862              		.thumb
 863              		.thumb_func
 865              	HAL_TIM_OC_Stop:
 866              		@ args = 0, pretend = 0, frame = 0
 867              		@ frame_needed = 0, uses_anonymous_args = 0
 868              		@ link register save eliminated.
 869 0000 0368     		ldr	r3, [r0]
 870 0002 10B4     		push	{r4}
 871 0004 1A6A     		ldr	r2, [r3, #32]
 872 0006 01F01F04 		and	r4, r1, #31
 873 000a 4FF0010C 		mov	ip, #1
 874 000e 0CFA04FC 		lsl	ip, ip, r4
 875 0012 22EA0C02 		bic	r2, r2, ip
 876 0016 1A62     		str	r2, [r3, #32]
 877 0018 204A     		ldr	r2, .L186
 878 001a 1C6A     		ldr	r4, [r3, #32]
 879 001c 1C62     		str	r4, [r3, #32]
 880 001e 9342     		cmp	r3, r2
 881 0020 15D0     		beq	.L176
 882 0022 02F58062 		add	r2, r2, #1024
 883 0026 9342     		cmp	r3, r2
 884 0028 11D0     		beq	.L176
 885              	.L177:
 886 002a 1C6A     		ldr	r4, [r3, #32]
ARM GAS  /tmp/cc58c9Ir.s 			page 16


 887 002c 41F21112 		movw	r2, #4369
 888 0030 1442     		tst	r4, r2
 889 0032 04D1     		bne	.L178
 890 0034 1C6A     		ldr	r4, [r3, #32]
 891 0036 40F24442 		movw	r2, #1092
 892 003a 1442     		tst	r4, r2
 893 003c 22D0     		beq	.L184
 894              	.L178:
 895 003e 0123     		movs	r3, #1
 896 0040 A1B9     		cbnz	r1, .L179
 897 0042 80F83E30 		strb	r3, [r0, #62]
 898 0046 5DF8044B 		ldr	r4, [sp], #4
 899 004a 0020     		movs	r0, #0
 900 004c 7047     		bx	lr
 901              	.L176:
 902 004e 1C6A     		ldr	r4, [r3, #32]
 903 0050 41F21112 		movw	r2, #4369
 904 0054 1442     		tst	r4, r2
 905 0056 E8D1     		bne	.L177
 906 0058 1C6A     		ldr	r4, [r3, #32]
 907 005a 40F24442 		movw	r2, #1092
 908 005e 1442     		tst	r4, r2
 909 0060 E3D1     		bne	.L177
 910 0062 5A6C     		ldr	r2, [r3, #68]
 911 0064 22F40042 		bic	r2, r2, #32768
 912 0068 5A64     		str	r2, [r3, #68]
 913 006a DEE7     		b	.L177
 914              	.L179:
 915 006c 0429     		cmp	r1, #4
 916 006e 0ED0     		beq	.L185
 917 0070 0829     		cmp	r1, #8
 918 0072 0CBF     		ite	eq
 919 0074 80F84030 		strbeq	r3, [r0, #64]
 920 0078 80F84130 		strbne	r3, [r0, #65]
 921 007c 5DF8044B 		ldr	r4, [sp], #4
 922 0080 0020     		movs	r0, #0
 923 0082 7047     		bx	lr
 924              	.L184:
 925 0084 1A68     		ldr	r2, [r3]
 926 0086 22F00102 		bic	r2, r2, #1
 927 008a 1A60     		str	r2, [r3]
 928 008c D7E7     		b	.L178
 929              	.L185:
 930 008e 80F83F30 		strb	r3, [r0, #63]
 931 0092 5DF8044B 		ldr	r4, [sp], #4
 932 0096 0020     		movs	r0, #0
 933 0098 7047     		bx	lr
 934              	.L187:
 935 009a 00BF     		.align	2
 936              	.L186:
 937 009c 00000140 		.word	1073807360
 939              		.section	.text.HAL_TIM_OC_Start_IT,"ax",%progbits
 940              		.align	1
 941              		.p2align 2,,3
 942              		.global	HAL_TIM_OC_Start_IT
 943              		.syntax unified
 944              		.thumb
ARM GAS  /tmp/cc58c9Ir.s 			page 17


 945              		.thumb_func
 947              	HAL_TIM_OC_Start_IT:
 948              		@ args = 0, pretend = 0, frame = 0
 949              		@ frame_needed = 0, uses_anonymous_args = 0
 950              		@ link register save eliminated.
 951 0000 79BB     		cbnz	r1, .L189
 952 0002 90F83E30 		ldrb	r3, [r0, #62]	@ zero_extendqisi2
 953 0006 012B     		cmp	r3, #1
 954 0008 38D1     		bne	.L190
 955 000a 0368     		ldr	r3, [r0]
 956 000c 0222     		movs	r2, #2
 957 000e 80F83E20 		strb	r2, [r0, #62]
 958 0012 DA68     		ldr	r2, [r3, #12]
 959 0014 42F00202 		orr	r2, r2, #2
 960 0018 DA60     		str	r2, [r3, #12]
 961              	.L197:
 962 001a 186A     		ldr	r0, [r3, #32]
 963 001c 0122     		movs	r2, #1
 964 001e 8A40     		lsls	r2, r2, r1
 965 0020 20EA0200 		bic	r0, r0, r2
 966 0024 1862     		str	r0, [r3, #32]
 967 0026 186A     		ldr	r0, [r3, #32]
 968 0028 2D49     		ldr	r1, .L223
 969 002a 0243     		orrs	r2, r2, r0
 970 002c 8B42     		cmp	r3, r1
 971 002e 1A62     		str	r2, [r3, #32]
 972 0030 26D0     		beq	.L198
 973 0032 2C4A     		ldr	r2, .L223+4
 974 0034 9342     		cmp	r3, r2
 975 0036 23D0     		beq	.L198
 976 0038 B3F1804F 		cmp	r3, #1073741824
 977 003c 06D0     		beq	.L200
 978 003e 2A4A     		ldr	r2, .L223+8
 979 0040 9342     		cmp	r3, r2
 980 0042 03D0     		beq	.L200
 981 0044 02F58062 		add	r2, r2, #1024
 982 0048 9342     		cmp	r3, r2
 983 004a 3ED1     		bne	.L219
 984              	.L200:
 985 004c 9A68     		ldr	r2, [r3, #8]
 986 004e 02F00702 		and	r2, r2, #7
 987 0052 062A     		cmp	r2, #6
 988 0054 03D0     		beq	.L206
 989              	.L203:
 990 0056 1A68     		ldr	r2, [r3]
 991 0058 42F00102 		orr	r2, r2, #1
 992 005c 1A60     		str	r2, [r3]
 993              	.L206:
 994 005e 0020     		movs	r0, #0
 995 0060 7047     		bx	lr
 996              	.L189:
 997 0062 0429     		cmp	r1, #4
 998 0064 11D0     		beq	.L220
 999 0066 0829     		cmp	r1, #8
 1000 0068 1CD0     		beq	.L221
 1001 006a 90F84130 		ldrb	r3, [r0, #65]	@ zero_extendqisi2
 1002 006e 012B     		cmp	r3, #1
ARM GAS  /tmp/cc58c9Ir.s 			page 18


 1003 0070 04D1     		bne	.L190
 1004 0072 0223     		movs	r3, #2
 1005 0074 0C29     		cmp	r1, #12
 1006 0076 80F84130 		strb	r3, [r0, #65]
 1007 007a 20D0     		beq	.L222
 1008              	.L190:
 1009 007c 0120     		movs	r0, #1
 1010 007e 7047     		bx	lr
 1011              	.L198:
 1012 0080 5A6C     		ldr	r2, [r3, #68]
 1013 0082 42F40042 		orr	r2, r2, #32768
 1014 0086 5A64     		str	r2, [r3, #68]
 1015 0088 E0E7     		b	.L200
 1016              	.L220:
 1017 008a 90F83F30 		ldrb	r3, [r0, #63]	@ zero_extendqisi2
 1018 008e 012B     		cmp	r3, #1
 1019 0090 F4D1     		bne	.L190
 1020 0092 0368     		ldr	r3, [r0]
 1021 0094 0222     		movs	r2, #2
 1022 0096 80F83F20 		strb	r2, [r0, #63]
 1023 009a DA68     		ldr	r2, [r3, #12]
 1024 009c 42F00402 		orr	r2, r2, #4
 1025 00a0 DA60     		str	r2, [r3, #12]
 1026 00a2 BAE7     		b	.L197
 1027              	.L221:
 1028 00a4 90F84030 		ldrb	r3, [r0, #64]	@ zero_extendqisi2
 1029 00a8 012B     		cmp	r3, #1
 1030 00aa E7D1     		bne	.L190
 1031 00ac 0368     		ldr	r3, [r0]
 1032 00ae 0222     		movs	r2, #2
 1033 00b0 80F84020 		strb	r2, [r0, #64]
 1034 00b4 DA68     		ldr	r2, [r3, #12]
 1035 00b6 42F00802 		orr	r2, r2, #8
 1036 00ba DA60     		str	r2, [r3, #12]
 1037 00bc ADE7     		b	.L197
 1038              	.L222:
 1039 00be 0368     		ldr	r3, [r0]
 1040 00c0 DA68     		ldr	r2, [r3, #12]
 1041 00c2 42F01002 		orr	r2, r2, #16
 1042 00c6 DA60     		str	r2, [r3, #12]
 1043 00c8 A7E7     		b	.L197
 1044              	.L219:
 1045 00ca 084A     		ldr	r2, .L223+12
 1046 00cc 9342     		cmp	r3, r2
 1047 00ce BDD0     		beq	.L200
 1048 00d0 074A     		ldr	r2, .L223+16
 1049 00d2 9342     		cmp	r3, r2
 1050 00d4 BAD0     		beq	.L200
 1051 00d6 A2F59432 		sub	r2, r2, #75776
 1052 00da 9342     		cmp	r3, r2
 1053 00dc BBD1     		bne	.L203
 1054 00de B5E7     		b	.L200
 1055              	.L224:
 1056              		.align	2
 1057              	.L223:
 1058 00e0 00000140 		.word	1073807360
 1059 00e4 00040140 		.word	1073808384
ARM GAS  /tmp/cc58c9Ir.s 			page 19


 1060 00e8 00040040 		.word	1073742848
 1061 00ec 000C0040 		.word	1073744896
 1062 00f0 00400140 		.word	1073823744
 1064              		.section	.text.HAL_TIM_OC_Stop_IT,"ax",%progbits
 1065              		.align	1
 1066              		.p2align 2,,3
 1067              		.global	HAL_TIM_OC_Stop_IT
 1068              		.syntax unified
 1069              		.thumb
 1070              		.thumb_func
 1072              	HAL_TIM_OC_Stop_IT:
 1073              		@ args = 0, pretend = 0, frame = 0
 1074              		@ frame_needed = 0, uses_anonymous_args = 0
 1075              		@ link register save eliminated.
 1076 0000 0C29     		cmp	r1, #12
 1077 0002 1DD8     		bhi	.L240
 1078 0004 01A3     		adr	r3, .L228
 1079 0006 53F821F0 		ldr	pc, [r3, r1, lsl #2]
 1080 000a 00BF     		.p2align 2
 1081              	.L228:
 1082 000c B7000000 		.word	.L231+1
 1083 0010 41000000 		.word	.L240+1
 1084 0014 41000000 		.word	.L240+1
 1085 0018 41000000 		.word	.L240+1
 1086 001c AB000000 		.word	.L230+1
 1087 0020 41000000 		.word	.L240+1
 1088 0024 41000000 		.word	.L240+1
 1089 0028 41000000 		.word	.L240+1
 1090 002c 9F000000 		.word	.L229+1
 1091 0030 41000000 		.word	.L240+1
 1092 0034 41000000 		.word	.L240+1
 1093 0038 41000000 		.word	.L240+1
 1094 003c 45000000 		.word	.L227+1
 1095              		.p2align 1
 1096              	.L240:
 1097 0040 0120     		movs	r0, #1
 1098 0042 7047     		bx	lr
 1099              	.L227:
 1100 0044 0368     		ldr	r3, [r0]
 1101 0046 DA68     		ldr	r2, [r3, #12]
 1102 0048 22F01002 		bic	r2, r2, #16
 1103 004c DA60     		str	r2, [r3, #12]
 1104              	.L232:
 1105 004e 1A6A     		ldr	r2, [r3, #32]
 1106 0050 4FF0010C 		mov	ip, #1
 1107 0054 0CFA01FC 		lsl	ip, ip, r1
 1108 0058 22EA0C02 		bic	r2, r2, ip
 1109 005c 10B4     		push	{r4}
 1110 005e 1A62     		str	r2, [r3, #32]
 1111 0060 284A     		ldr	r2, .L245
 1112 0062 1C6A     		ldr	r4, [r3, #32]
 1113 0064 1C62     		str	r4, [r3, #32]
 1114 0066 9342     		cmp	r3, r2
 1115 0068 2BD0     		beq	.L233
 1116 006a 02F58062 		add	r2, r2, #1024
 1117 006e 9342     		cmp	r3, r2
 1118 0070 27D0     		beq	.L233
ARM GAS  /tmp/cc58c9Ir.s 			page 20


 1119              	.L234:
 1120 0072 1C6A     		ldr	r4, [r3, #32]
 1121 0074 41F21112 		movw	r2, #4369
 1122 0078 1442     		tst	r4, r2
 1123 007a 08D1     		bne	.L235
 1124 007c 1C6A     		ldr	r4, [r3, #32]
 1125 007e 40F24442 		movw	r2, #1092
 1126 0082 1442     		tst	r4, r2
 1127 0084 03D1     		bne	.L235
 1128 0086 1A68     		ldr	r2, [r3]
 1129 0088 22F00102 		bic	r2, r2, #1
 1130 008c 1A60     		str	r2, [r3]
 1131              	.L235:
 1132 008e 0123     		movs	r3, #1
 1133 0090 31BB     		cbnz	r1, .L236
 1134 0092 80F83E30 		strb	r3, [r0, #62]
 1135 0096 5DF8044B 		ldr	r4, [sp], #4
 1136 009a 0020     		movs	r0, #0
 1137 009c 7047     		bx	lr
 1138              	.L229:
 1139 009e 0368     		ldr	r3, [r0]
 1140 00a0 DA68     		ldr	r2, [r3, #12]
 1141 00a2 22F00802 		bic	r2, r2, #8
 1142 00a6 DA60     		str	r2, [r3, #12]
 1143 00a8 D1E7     		b	.L232
 1144              	.L230:
 1145 00aa 0368     		ldr	r3, [r0]
 1146 00ac DA68     		ldr	r2, [r3, #12]
 1147 00ae 22F00402 		bic	r2, r2, #4
 1148 00b2 DA60     		str	r2, [r3, #12]
 1149 00b4 CBE7     		b	.L232
 1150              	.L231:
 1151 00b6 0368     		ldr	r3, [r0]
 1152 00b8 DA68     		ldr	r2, [r3, #12]
 1153 00ba 22F00202 		bic	r2, r2, #2
 1154 00be DA60     		str	r2, [r3, #12]
 1155 00c0 C5E7     		b	.L232
 1156              	.L233:
 1157 00c2 1C6A     		ldr	r4, [r3, #32]
 1158 00c4 41F21112 		movw	r2, #4369
 1159 00c8 1442     		tst	r4, r2
 1160 00ca D2D1     		bne	.L234
 1161 00cc 1C6A     		ldr	r4, [r3, #32]
 1162 00ce 40F24442 		movw	r2, #1092
 1163 00d2 1442     		tst	r4, r2
 1164 00d4 CDD1     		bne	.L234
 1165 00d6 5A6C     		ldr	r2, [r3, #68]
 1166 00d8 22F40042 		bic	r2, r2, #32768
 1167 00dc 5A64     		str	r2, [r3, #68]
 1168 00de C8E7     		b	.L234
 1169              	.L236:
 1170 00e0 0429     		cmp	r1, #4
 1171 00e2 09D0     		beq	.L244
 1172 00e4 0829     		cmp	r1, #8
 1173 00e6 0CBF     		ite	eq
 1174 00e8 80F84030 		strbeq	r3, [r0, #64]
 1175 00ec 80F84130 		strbne	r3, [r0, #65]
ARM GAS  /tmp/cc58c9Ir.s 			page 21


 1176 00f0 5DF8044B 		ldr	r4, [sp], #4
 1177 00f4 0020     		movs	r0, #0
 1178 00f6 7047     		bx	lr
 1179              	.L244:
 1180 00f8 80F83F30 		strb	r3, [r0, #63]
 1181 00fc 5DF8044B 		ldr	r4, [sp], #4
 1182 0100 0020     		movs	r0, #0
 1183 0102 7047     		bx	lr
 1184              	.L246:
 1185              		.align	2
 1186              	.L245:
 1187 0104 00000140 		.word	1073807360
 1189              		.section	.text.HAL_TIM_OC_Start_DMA,"ax",%progbits
 1190              		.align	1
 1191              		.p2align 2,,3
 1192              		.global	HAL_TIM_OC_Start_DMA
 1193              		.syntax unified
 1194              		.thumb
 1195              		.thumb_func
 1197              	HAL_TIM_OC_Start_DMA:
 1198              		@ args = 0, pretend = 0, frame = 0
 1199              		@ frame_needed = 0, uses_anonymous_args = 0
 1200 0000 70B5     		push	{r4, r5, r6, lr}
 1201 0002 0446     		mov	r4, r0
 1202 0004 0D46     		mov	r5, r1
 1203 0006 0029     		cmp	r1, #0
 1204 0008 50D1     		bne	.L248
 1205 000a 90F83E10 		ldrb	r1, [r0, #62]	@ zero_extendqisi2
 1206 000e 0229     		cmp	r1, #2
 1207 0010 C8B2     		uxtb	r0, r1
 1208 0012 4AD0     		beq	.L275
 1209 0014 94F83E10 		ldrb	r1, [r4, #62]	@ zero_extendqisi2
 1210 0018 0129     		cmp	r1, #1
 1211 001a 5BD1     		bne	.L265
 1212 001c 002A     		cmp	r2, #0
 1213 001e 59D0     		beq	.L265
 1214 0020 002B     		cmp	r3, #0
 1215 0022 57D0     		beq	.L265
 1216 0024 606A     		ldr	r0, [r4, #36]
 1217 0026 5D4E     		ldr	r6, .L335
 1218 0028 0221     		movs	r1, #2
 1219 002a 84F83E10 		strb	r1, [r4, #62]
 1220 002e 1146     		mov	r1, r2
 1221 0030 2268     		ldr	r2, [r4]
 1222 0032 C663     		str	r6, [r0, #60]
 1223 0034 5A4E     		ldr	r6, .L335+4
 1224 0036 0664     		str	r6, [r0, #64]
 1225 0038 5A4E     		ldr	r6, .L335+8
 1226 003a C664     		str	r6, [r0, #76]
 1227 003c 3432     		adds	r2, r2, #52
 1228 003e FFF7FEFF 		bl	HAL_DMA_Start_IT
 1229 0042 0028     		cmp	r0, #0
 1230 0044 46D1     		bne	.L265
 1231 0046 2368     		ldr	r3, [r4]
 1232 0048 DA68     		ldr	r2, [r3, #12]
 1233 004a 42F40072 		orr	r2, r2, #512
 1234 004e DA60     		str	r2, [r3, #12]
ARM GAS  /tmp/cc58c9Ir.s 			page 22


 1235              	.L266:
 1236 0050 196A     		ldr	r1, [r3, #32]
 1237 0052 0122     		movs	r2, #1
 1238 0054 AA40     		lsls	r2, r2, r5
 1239 0056 21EA0201 		bic	r1, r1, r2
 1240 005a 1962     		str	r1, [r3, #32]
 1241 005c 186A     		ldr	r0, [r3, #32]
 1242 005e 5249     		ldr	r1, .L335+12
 1243 0060 0243     		orrs	r2, r2, r0
 1244 0062 8B42     		cmp	r3, r1
 1245 0064 1A62     		str	r2, [r3, #32]
 1246 0066 7FD0     		beq	.L267
 1247 0068 504A     		ldr	r2, .L335+16
 1248 006a 9342     		cmp	r3, r2
 1249 006c 7CD0     		beq	.L267
 1250 006e B3F1804F 		cmp	r3, #1073741824
 1251 0072 10D0     		beq	.L269
 1252 0074 4E4A     		ldr	r2, .L335+20
 1253 0076 9342     		cmp	r3, r2
 1254 0078 0DD0     		beq	.L269
 1255 007a 02F58062 		add	r2, r2, #1024
 1256 007e 9342     		cmp	r3, r2
 1257 0080 09D0     		beq	.L269
 1258 0082 4C4A     		ldr	r2, .L335+24
 1259 0084 9342     		cmp	r3, r2
 1260 0086 06D0     		beq	.L269
 1261 0088 4B4A     		ldr	r2, .L335+28
 1262 008a 9342     		cmp	r3, r2
 1263 008c 03D0     		beq	.L269
 1264 008e A2F59432 		sub	r2, r2, #75776
 1265 0092 9342     		cmp	r3, r2
 1266 0094 04D1     		bne	.L272
 1267              	.L269:
 1268 0096 9A68     		ldr	r2, [r3, #8]
 1269 0098 02F00702 		and	r2, r2, #7
 1270 009c 062A     		cmp	r2, #6
 1271 009e 03D0     		beq	.L273
 1272              	.L272:
 1273 00a0 1A68     		ldr	r2, [r3]
 1274 00a2 42F00102 		orr	r2, r2, #1
 1275 00a6 1A60     		str	r2, [r3]
 1276              	.L273:
 1277 00a8 0020     		movs	r0, #0
 1278              	.L275:
 1279 00aa 70BD     		pop	{r4, r5, r6, pc}
 1280              	.L248:
 1281 00ac 0429     		cmp	r1, #4
 1282 00ae 13D0     		beq	.L332
 1283 00b0 0829     		cmp	r1, #8
 1284 00b2 35D0     		beq	.L333
 1285 00b4 90F84110 		ldrb	r1, [r0, #65]	@ zero_extendqisi2
 1286 00b8 0229     		cmp	r1, #2
 1287 00ba C8B2     		uxtb	r0, r1
 1288 00bc F5D0     		beq	.L275
 1289 00be 94F84110 		ldrb	r1, [r4, #65]	@ zero_extendqisi2
 1290 00c2 0129     		cmp	r1, #1
 1291 00c4 06D1     		bne	.L265
ARM GAS  /tmp/cc58c9Ir.s 			page 23


 1292 00c6 2AB1     		cbz	r2, .L265
 1293 00c8 23B1     		cbz	r3, .L265
 1294 00ca 0221     		movs	r1, #2
 1295 00cc 0C2D     		cmp	r5, #12
 1296 00ce 84F84110 		strb	r1, [r4, #65]
 1297 00d2 4ED0     		beq	.L334
 1298              	.L265:
 1299 00d4 0120     		movs	r0, #1
 1300 00d6 70BD     		pop	{r4, r5, r6, pc}
 1301              	.L332:
 1302 00d8 90F83F10 		ldrb	r1, [r0, #63]	@ zero_extendqisi2
 1303 00dc 0229     		cmp	r1, #2
 1304 00de C8B2     		uxtb	r0, r1
 1305 00e0 E3D0     		beq	.L275
 1306 00e2 94F83F10 		ldrb	r1, [r4, #63]	@ zero_extendqisi2
 1307 00e6 0129     		cmp	r1, #1
 1308 00e8 F4D1     		bne	.L265
 1309 00ea 002A     		cmp	r2, #0
 1310 00ec F2D0     		beq	.L265
 1311 00ee 002B     		cmp	r3, #0
 1312 00f0 F0D0     		beq	.L265
 1313 00f2 A06A     		ldr	r0, [r4, #40]
 1314 00f4 294E     		ldr	r6, .L335
 1315 00f6 0221     		movs	r1, #2
 1316 00f8 84F83F10 		strb	r1, [r4, #63]
 1317 00fc 1146     		mov	r1, r2
 1318 00fe 2268     		ldr	r2, [r4]
 1319 0100 C663     		str	r6, [r0, #60]
 1320 0102 274E     		ldr	r6, .L335+4
 1321 0104 0664     		str	r6, [r0, #64]
 1322 0106 274E     		ldr	r6, .L335+8
 1323 0108 C664     		str	r6, [r0, #76]
 1324 010a 3832     		adds	r2, r2, #56
 1325 010c FFF7FEFF 		bl	HAL_DMA_Start_IT
 1326 0110 0028     		cmp	r0, #0
 1327 0112 DFD1     		bne	.L265
 1328 0114 2368     		ldr	r3, [r4]
 1329 0116 DA68     		ldr	r2, [r3, #12]
 1330 0118 42F48062 		orr	r2, r2, #1024
 1331 011c DA60     		str	r2, [r3, #12]
 1332 011e 97E7     		b	.L266
 1333              	.L333:
 1334 0120 90F84010 		ldrb	r1, [r0, #64]	@ zero_extendqisi2
 1335 0124 0229     		cmp	r1, #2
 1336 0126 C8B2     		uxtb	r0, r1
 1337 0128 BFD0     		beq	.L275
 1338 012a 94F84010 		ldrb	r1, [r4, #64]	@ zero_extendqisi2
 1339 012e 0129     		cmp	r1, #1
 1340 0130 D0D1     		bne	.L265
 1341 0132 002A     		cmp	r2, #0
 1342 0134 CED0     		beq	.L265
 1343 0136 002B     		cmp	r3, #0
 1344 0138 CCD0     		beq	.L265
 1345 013a E06A     		ldr	r0, [r4, #44]
 1346 013c 174E     		ldr	r6, .L335
 1347 013e 0221     		movs	r1, #2
 1348 0140 84F84010 		strb	r1, [r4, #64]
ARM GAS  /tmp/cc58c9Ir.s 			page 24


 1349 0144 1146     		mov	r1, r2
 1350 0146 2268     		ldr	r2, [r4]
 1351 0148 C663     		str	r6, [r0, #60]
 1352 014a 154E     		ldr	r6, .L335+4
 1353 014c 0664     		str	r6, [r0, #64]
 1354 014e 154E     		ldr	r6, .L335+8
 1355 0150 C664     		str	r6, [r0, #76]
 1356 0152 3C32     		adds	r2, r2, #60
 1357 0154 FFF7FEFF 		bl	HAL_DMA_Start_IT
 1358 0158 0028     		cmp	r0, #0
 1359 015a BBD1     		bne	.L265
 1360 015c 2368     		ldr	r3, [r4]
 1361 015e DA68     		ldr	r2, [r3, #12]
 1362 0160 42F40062 		orr	r2, r2, #2048
 1363 0164 DA60     		str	r2, [r3, #12]
 1364 0166 73E7     		b	.L266
 1365              	.L267:
 1366 0168 5A6C     		ldr	r2, [r3, #68]
 1367 016a 42F40042 		orr	r2, r2, #32768
 1368 016e 5A64     		str	r2, [r3, #68]
 1369 0170 91E7     		b	.L269
 1370              	.L334:
 1371 0172 206B     		ldr	r0, [r4, #48]
 1372 0174 094E     		ldr	r6, .L335
 1373 0176 1146     		mov	r1, r2
 1374 0178 2268     		ldr	r2, [r4]
 1375 017a C663     		str	r6, [r0, #60]
 1376 017c 084E     		ldr	r6, .L335+4
 1377 017e 0664     		str	r6, [r0, #64]
 1378 0180 084E     		ldr	r6, .L335+8
 1379 0182 C664     		str	r6, [r0, #76]
 1380 0184 4032     		adds	r2, r2, #64
 1381 0186 FFF7FEFF 		bl	HAL_DMA_Start_IT
 1382 018a 0028     		cmp	r0, #0
 1383 018c A2D1     		bne	.L265
 1384 018e 2368     		ldr	r3, [r4]
 1385 0190 DA68     		ldr	r2, [r3, #12]
 1386 0192 42F48052 		orr	r2, r2, #4096
 1387 0196 DA60     		str	r2, [r3, #12]
 1388 0198 5AE7     		b	.L266
 1389              	.L336:
 1390 019a 00BF     		.align	2
 1391              	.L335:
 1392 019c 00000000 		.word	TIM_DMADelayPulseCplt
 1393 01a0 00000000 		.word	TIM_DMADelayPulseHalfCplt
 1394 01a4 00000000 		.word	TIM_DMAError
 1395 01a8 00000140 		.word	1073807360
 1396 01ac 00040140 		.word	1073808384
 1397 01b0 00040040 		.word	1073742848
 1398 01b4 000C0040 		.word	1073744896
 1399 01b8 00400140 		.word	1073823744
 1401              		.section	.text.HAL_TIM_OC_Stop_DMA,"ax",%progbits
 1402              		.align	1
 1403              		.p2align 2,,3
 1404              		.global	HAL_TIM_OC_Stop_DMA
 1405              		.syntax unified
 1406              		.thumb
ARM GAS  /tmp/cc58c9Ir.s 			page 25


 1407              		.thumb_func
 1409              	HAL_TIM_OC_Stop_DMA:
 1410              		@ args = 0, pretend = 0, frame = 0
 1411              		@ frame_needed = 0, uses_anonymous_args = 0
 1412 0000 38B5     		push	{r3, r4, r5, lr}
 1413 0002 0C46     		mov	r4, r1
 1414 0004 0546     		mov	r5, r0
 1415 0006 0C29     		cmp	r1, #12
 1416 0008 1CD8     		bhi	.L352
 1417 000a 01A3     		adr	r3, .L340
 1418 000c 53F821F0 		ldr	pc, [r3, r1, lsl #2]
 1419              		.p2align 2
 1420              	.L340:
 1421 0010 C5000000 		.word	.L343+1
 1422 0014 45000000 		.word	.L352+1
 1423 0018 45000000 		.word	.L352+1
 1424 001c 45000000 		.word	.L352+1
 1425 0020 B3000000 		.word	.L342+1
 1426 0024 45000000 		.word	.L352+1
 1427 0028 45000000 		.word	.L352+1
 1428 002c 45000000 		.word	.L352+1
 1429 0030 A1000000 		.word	.L341+1
 1430 0034 45000000 		.word	.L352+1
 1431 0038 45000000 		.word	.L352+1
 1432 003c 45000000 		.word	.L352+1
 1433 0040 49000000 		.word	.L339+1
 1434              		.p2align 1
 1435              	.L352:
 1436 0044 0120     		movs	r0, #1
 1437 0046 38BD     		pop	{r3, r4, r5, pc}
 1438              	.L339:
 1439 0048 0268     		ldr	r2, [r0]
 1440 004a 006B     		ldr	r0, [r0, #48]
 1441 004c D368     		ldr	r3, [r2, #12]
 1442 004e 23F48053 		bic	r3, r3, #4096
 1443 0052 D360     		str	r3, [r2, #12]
 1444 0054 FFF7FEFF 		bl	HAL_DMA_Abort_IT
 1445              	.L344:
 1446 0058 2B68     		ldr	r3, [r5]
 1447 005a 0121     		movs	r1, #1
 1448 005c 1A6A     		ldr	r2, [r3, #32]
 1449 005e A140     		lsls	r1, r1, r4
 1450 0060 22EA0102 		bic	r2, r2, r1
 1451 0064 1A62     		str	r2, [r3, #32]
 1452 0066 294A     		ldr	r2, .L355
 1453 0068 196A     		ldr	r1, [r3, #32]
 1454 006a 1962     		str	r1, [r3, #32]
 1455 006c 9342     		cmp	r3, r2
 1456 006e 32D0     		beq	.L345
 1457 0070 02F58062 		add	r2, r2, #1024
 1458 0074 9342     		cmp	r3, r2
 1459 0076 2ED0     		beq	.L345
 1460              	.L346:
 1461 0078 196A     		ldr	r1, [r3, #32]
 1462 007a 41F21112 		movw	r2, #4369
 1463 007e 1142     		tst	r1, r2
 1464 0080 08D1     		bne	.L347
ARM GAS  /tmp/cc58c9Ir.s 			page 26


 1465 0082 196A     		ldr	r1, [r3, #32]
 1466 0084 40F24442 		movw	r2, #1092
 1467 0088 1142     		tst	r1, r2
 1468 008a 03D1     		bne	.L347
 1469 008c 1A68     		ldr	r2, [r3]
 1470 008e 22F00102 		bic	r2, r2, #1
 1471 0092 1A60     		str	r2, [r3]
 1472              	.L347:
 1473 0094 0123     		movs	r3, #1
 1474 0096 6CBB     		cbnz	r4, .L348
 1475 0098 85F83E30 		strb	r3, [r5, #62]
 1476              	.L349:
 1477 009c 0020     		movs	r0, #0
 1478 009e 38BD     		pop	{r3, r4, r5, pc}
 1479              	.L341:
 1480 00a0 0268     		ldr	r2, [r0]
 1481 00a2 C06A     		ldr	r0, [r0, #44]
 1482 00a4 D368     		ldr	r3, [r2, #12]
 1483 00a6 23F40063 		bic	r3, r3, #2048
 1484 00aa D360     		str	r3, [r2, #12]
 1485 00ac FFF7FEFF 		bl	HAL_DMA_Abort_IT
 1486 00b0 D2E7     		b	.L344
 1487              	.L342:
 1488 00b2 0268     		ldr	r2, [r0]
 1489 00b4 806A     		ldr	r0, [r0, #40]
 1490 00b6 D368     		ldr	r3, [r2, #12]
 1491 00b8 23F48063 		bic	r3, r3, #1024
 1492 00bc D360     		str	r3, [r2, #12]
 1493 00be FFF7FEFF 		bl	HAL_DMA_Abort_IT
 1494 00c2 C9E7     		b	.L344
 1495              	.L343:
 1496 00c4 0268     		ldr	r2, [r0]
 1497 00c6 406A     		ldr	r0, [r0, #36]
 1498 00c8 D368     		ldr	r3, [r2, #12]
 1499 00ca 23F40073 		bic	r3, r3, #512
 1500 00ce D360     		str	r3, [r2, #12]
 1501 00d0 FFF7FEFF 		bl	HAL_DMA_Abort_IT
 1502 00d4 C0E7     		b	.L344
 1503              	.L345:
 1504 00d6 196A     		ldr	r1, [r3, #32]
 1505 00d8 41F21112 		movw	r2, #4369
 1506 00dc 1142     		tst	r1, r2
 1507 00de CBD1     		bne	.L346
 1508 00e0 196A     		ldr	r1, [r3, #32]
 1509 00e2 40F24442 		movw	r2, #1092
 1510 00e6 1142     		tst	r1, r2
 1511 00e8 C6D1     		bne	.L346
 1512 00ea 5A6C     		ldr	r2, [r3, #68]
 1513 00ec 22F40042 		bic	r2, r2, #32768
 1514 00f0 5A64     		str	r2, [r3, #68]
 1515 00f2 C1E7     		b	.L346
 1516              	.L348:
 1517 00f4 042C     		cmp	r4, #4
 1518 00f6 06D0     		beq	.L354
 1519 00f8 082C     		cmp	r4, #8
 1520 00fa 0CBF     		ite	eq
 1521 00fc 85F84030 		strbeq	r3, [r5, #64]
ARM GAS  /tmp/cc58c9Ir.s 			page 27


 1522 0100 85F84130 		strbne	r3, [r5, #65]
 1523 0104 CAE7     		b	.L349
 1524              	.L354:
 1525 0106 85F83F30 		strb	r3, [r5, #63]
 1526 010a C7E7     		b	.L349
 1527              	.L356:
 1528              		.align	2
 1529              	.L355:
 1530 010c 00000140 		.word	1073807360
 1532              		.section	.text.HAL_TIM_PWM_MspInit,"ax",%progbits
 1533              		.align	1
 1534              		.p2align 2,,3
 1535              		.weak	HAL_TIM_PWM_MspInit
 1536              		.syntax unified
 1537              		.thumb
 1538              		.thumb_func
 1540              	HAL_TIM_PWM_MspInit:
 1541              		@ args = 0, pretend = 0, frame = 0
 1542              		@ frame_needed = 0, uses_anonymous_args = 0
 1543              		@ link register save eliminated.
 1544 0000 7047     		bx	lr
 1546 0002 00BF     		.section	.text.HAL_TIM_PWM_Init,"ax",%progbits
 1547              		.align	1
 1548              		.p2align 2,,3
 1549              		.global	HAL_TIM_PWM_Init
 1550              		.syntax unified
 1551              		.thumb
 1552              		.thumb_func
 1554              	HAL_TIM_PWM_Init:
 1555              		@ args = 0, pretend = 0, frame = 0
 1556              		@ frame_needed = 0, uses_anonymous_args = 0
 1557 0000 0028     		cmp	r0, #0
 1558 0002 00F08F80 		beq	.L373
 1559 0006 38B5     		push	{r3, r4, r5, lr}
 1560 0008 90F83D30 		ldrb	r3, [r0, #61]	@ zero_extendqisi2
 1561 000c 0446     		mov	r4, r0
 1562 000e 03F0FF02 		and	r2, r3, #255
 1563 0012 002B     		cmp	r3, #0
 1564 0014 00F08180 		beq	.L384
 1565              	.L360:
 1566 0018 2268     		ldr	r2, [r4]
 1567 001a 4349     		ldr	r1, .L385
 1568 001c 0223     		movs	r3, #2
 1569 001e 84F83D30 		strb	r3, [r4, #61]
 1570 0022 8A42     		cmp	r2, r1
 1571 0024 1368     		ldr	r3, [r2]
 1572 0026 64D0     		beq	.L361
 1573 0028 B2F1804F 		cmp	r2, #1073741824
 1574 002c 30D0     		beq	.L362
 1575 002e A1F57C41 		sub	r1, r1, #64512
 1576 0032 8A42     		cmp	r2, r1
 1577 0034 2CD0     		beq	.L362
 1578 0036 01F58061 		add	r1, r1, #1024
 1579 003a 8A42     		cmp	r2, r1
 1580 003c 28D0     		beq	.L362
 1581 003e 01F58061 		add	r1, r1, #1024
 1582 0042 8A42     		cmp	r2, r1
ARM GAS  /tmp/cc58c9Ir.s 			page 28


 1583 0044 24D0     		beq	.L362
 1584 0046 01F57841 		add	r1, r1, #63488
 1585 004a 8A42     		cmp	r2, r1
 1586 004c 51D0     		beq	.L361
 1587 004e 3749     		ldr	r1, .L385+4
 1588 0050 8A42     		cmp	r2, r1
 1589 0052 21D0     		beq	.L368
 1590 0054 01F58061 		add	r1, r1, #1024
 1591 0058 8A42     		cmp	r2, r1
 1592 005a 1DD0     		beq	.L368
 1593 005c 01F58061 		add	r1, r1, #1024
 1594 0060 8A42     		cmp	r2, r1
 1595 0062 19D0     		beq	.L368
 1596 0064 A1F59831 		sub	r1, r1, #77824
 1597 0068 8A42     		cmp	r2, r1
 1598 006a 15D0     		beq	.L368
 1599 006c 01F58061 		add	r1, r1, #1024
 1600 0070 8A42     		cmp	r2, r1
 1601 0072 11D0     		beq	.L368
 1602 0074 01F58061 		add	r1, r1, #1024
 1603 0078 8A42     		cmp	r2, r1
 1604 007a 0DD0     		beq	.L368
 1605 007c A569     		ldr	r5, [r4, #24]
 1606 007e 6168     		ldr	r1, [r4, #4]
 1607 0080 E068     		ldr	r0, [r4, #12]
 1608 0082 23F08003 		bic	r3, r3, #128
 1609 0086 2B43     		orrs	r3, r3, r5
 1610 0088 1360     		str	r3, [r2]
 1611 008a D062     		str	r0, [r2, #44]
 1612 008c 9162     		str	r1, [r2, #40]
 1613 008e 10E0     		b	.L372
 1614              	.L362:
 1615 0090 A168     		ldr	r1, [r4, #8]
 1616 0092 23F07003 		bic	r3, r3, #112
 1617 0096 0B43     		orrs	r3, r3, r1
 1618              	.L368:
 1619 0098 2069     		ldr	r0, [r4, #16]
 1620 009a A169     		ldr	r1, [r4, #24]
 1621 009c 23F44073 		bic	r3, r3, #768
 1622 00a0 0343     		orrs	r3, r3, r0
 1623 00a2 23F08003 		bic	r3, r3, #128
 1624 00a6 E068     		ldr	r0, [r4, #12]
 1625 00a8 0B43     		orrs	r3, r3, r1
 1626 00aa 6168     		ldr	r1, [r4, #4]
 1627 00ac 1360     		str	r3, [r2]
 1628 00ae D062     		str	r0, [r2, #44]
 1629 00b0 9162     		str	r1, [r2, #40]
 1630              	.L372:
 1631 00b2 0123     		movs	r3, #1
 1632 00b4 5361     		str	r3, [r2, #20]
 1633 00b6 1369     		ldr	r3, [r2, #16]
 1634 00b8 DB07     		lsls	r3, r3, #31
 1635 00ba 03D5     		bpl	.L371
 1636 00bc 1369     		ldr	r3, [r2, #16]
 1637 00be 23F00103 		bic	r3, r3, #1
 1638 00c2 1361     		str	r3, [r2, #16]
 1639              	.L371:
ARM GAS  /tmp/cc58c9Ir.s 			page 29


 1640 00c4 0123     		movs	r3, #1
 1641 00c6 84F84630 		strb	r3, [r4, #70]
 1642 00ca 84F83E30 		strb	r3, [r4, #62]
 1643 00ce 84F83F30 		strb	r3, [r4, #63]
 1644 00d2 84F84030 		strb	r3, [r4, #64]
 1645 00d6 84F84130 		strb	r3, [r4, #65]
 1646 00da 84F84230 		strb	r3, [r4, #66]
 1647 00de 84F84330 		strb	r3, [r4, #67]
 1648 00e2 84F84430 		strb	r3, [r4, #68]
 1649 00e6 84F84530 		strb	r3, [r4, #69]
 1650 00ea 84F83D30 		strb	r3, [r4, #61]
 1651 00ee 0020     		movs	r0, #0
 1652 00f0 38BD     		pop	{r3, r4, r5, pc}
 1653              	.L361:
 1654 00f2 A068     		ldr	r0, [r4, #8]
 1655 00f4 2169     		ldr	r1, [r4, #16]
 1656 00f6 23F07003 		bic	r3, r3, #112
 1657 00fa 0343     		orrs	r3, r3, r0
 1658 00fc 23F44073 		bic	r3, r3, #768
 1659 0100 0B43     		orrs	r3, r3, r1
 1660 0102 A169     		ldr	r1, [r4, #24]
 1661 0104 23F08003 		bic	r3, r3, #128
 1662 0108 0B43     		orrs	r3, r3, r1
 1663 010a 1360     		str	r3, [r2]
 1664 010c E368     		ldr	r3, [r4, #12]
 1665 010e D362     		str	r3, [r2, #44]
 1666 0110 6368     		ldr	r3, [r4, #4]
 1667 0112 9362     		str	r3, [r2, #40]
 1668 0114 6369     		ldr	r3, [r4, #20]
 1669 0116 1363     		str	r3, [r2, #48]
 1670 0118 CBE7     		b	.L372
 1671              	.L384:
 1672 011a 80F83C20 		strb	r2, [r0, #60]
 1673 011e FFF7FEFF 		bl	HAL_TIM_PWM_MspInit
 1674 0122 79E7     		b	.L360
 1675              	.L373:
 1676 0124 0120     		movs	r0, #1
 1677 0126 7047     		bx	lr
 1678              	.L386:
 1679              		.align	2
 1680              	.L385:
 1681 0128 00000140 		.word	1073807360
 1682 012c 00400140 		.word	1073823744
 1684              		.section	.text.HAL_TIM_PWM_MspDeInit,"ax",%progbits
 1685              		.align	1
 1686              		.p2align 2,,3
 1687              		.weak	HAL_TIM_PWM_MspDeInit
 1688              		.syntax unified
 1689              		.thumb
 1690              		.thumb_func
 1692              	HAL_TIM_PWM_MspDeInit:
 1693              		@ args = 0, pretend = 0, frame = 0
 1694              		@ frame_needed = 0, uses_anonymous_args = 0
 1695              		@ link register save eliminated.
 1696 0000 7047     		bx	lr
 1698 0002 00BF     		.section	.text.HAL_TIM_PWM_DeInit,"ax",%progbits
 1699              		.align	1
ARM GAS  /tmp/cc58c9Ir.s 			page 30


 1700              		.p2align 2,,3
 1701              		.global	HAL_TIM_PWM_DeInit
 1702              		.syntax unified
 1703              		.thumb
 1704              		.thumb_func
 1706              	HAL_TIM_PWM_DeInit:
 1707              		@ args = 0, pretend = 0, frame = 0
 1708              		@ frame_needed = 0, uses_anonymous_args = 0
 1709 0000 0222     		movs	r2, #2
 1710 0002 0368     		ldr	r3, [r0]
 1711 0004 10B5     		push	{r4, lr}
 1712 0006 80F83D20 		strb	r2, [r0, #61]
 1713 000a 196A     		ldr	r1, [r3, #32]
 1714 000c 41F21112 		movw	r2, #4369
 1715 0010 1142     		tst	r1, r2
 1716 0012 0446     		mov	r4, r0
 1717 0014 08D1     		bne	.L389
 1718 0016 196A     		ldr	r1, [r3, #32]
 1719 0018 40F24442 		movw	r2, #1092
 1720 001c 1142     		tst	r1, r2
 1721 001e 03D1     		bne	.L389
 1722 0020 1A68     		ldr	r2, [r3]
 1723 0022 22F00102 		bic	r2, r2, #1
 1724 0026 1A60     		str	r2, [r3]
 1725              	.L389:
 1726 0028 2046     		mov	r0, r4
 1727 002a FFF7FEFF 		bl	HAL_TIM_PWM_MspDeInit
 1728 002e 0020     		movs	r0, #0
 1729 0030 84F84600 		strb	r0, [r4, #70]
 1730 0034 84F83C00 		strb	r0, [r4, #60]
 1731 0038 84F83E00 		strb	r0, [r4, #62]
 1732 003c 84F83F00 		strb	r0, [r4, #63]
 1733 0040 84F84000 		strb	r0, [r4, #64]
 1734 0044 84F84100 		strb	r0, [r4, #65]
 1735 0048 84F84200 		strb	r0, [r4, #66]
 1736 004c 84F84300 		strb	r0, [r4, #67]
 1737 0050 84F84400 		strb	r0, [r4, #68]
 1738 0054 84F84500 		strb	r0, [r4, #69]
 1739 0058 84F83D00 		strb	r0, [r4, #61]
 1740 005c 10BD     		pop	{r4, pc}
 1742 005e 00BF     		.section	.text.HAL_TIM_PWM_Start,"ax",%progbits
 1743              		.align	1
 1744              		.p2align 2,,3
 1745              		.global	HAL_TIM_PWM_Start
 1746              		.syntax unified
 1747              		.thumb
 1748              		.thumb_func
 1750              	HAL_TIM_PWM_Start:
 1751              		@ args = 0, pretend = 0, frame = 0
 1752              		@ frame_needed = 0, uses_anonymous_args = 0
 1753              		@ link register save eliminated.
 1754 0000 69BB     		cbnz	r1, .L392
 1755 0002 90F83E30 		ldrb	r3, [r0, #62]	@ zero_extendqisi2
 1756 0006 012B     		cmp	r3, #1
 1757 0008 35D1     		bne	.L412
 1758 000a 0223     		movs	r3, #2
 1759 000c 80F83E30 		strb	r3, [r0, #62]
ARM GAS  /tmp/cc58c9Ir.s 			page 31


 1760              	.L400:
 1761 0010 0368     		ldr	r3, [r0]
 1762 0012 01F01F01 		and	r1, r1, #31
 1763 0016 186A     		ldr	r0, [r3, #32]
 1764 0018 0122     		movs	r2, #1
 1765 001a 8A40     		lsls	r2, r2, r1
 1766 001c 20EA0200 		bic	r0, r0, r2
 1767 0020 1862     		str	r0, [r3, #32]
 1768 0022 186A     		ldr	r0, [r3, #32]
 1769 0024 2549     		ldr	r1, .L431
 1770 0026 0243     		orrs	r2, r2, r0
 1771 0028 8B42     		cmp	r3, r1
 1772 002a 1A62     		str	r2, [r3, #32]
 1773 002c 25D0     		beq	.L401
 1774 002e 244A     		ldr	r2, .L431+4
 1775 0030 9342     		cmp	r3, r2
 1776 0032 22D0     		beq	.L401
 1777 0034 B3F1804F 		cmp	r3, #1073741824
 1778 0038 06D0     		beq	.L403
 1779 003a 224A     		ldr	r2, .L431+8
 1780 003c 9342     		cmp	r3, r2
 1781 003e 03D0     		beq	.L403
 1782 0040 02F58062 		add	r2, r2, #1024
 1783 0044 9342     		cmp	r3, r2
 1784 0046 2DD1     		bne	.L428
 1785              	.L403:
 1786 0048 9A68     		ldr	r2, [r3, #8]
 1787 004a 02F00702 		and	r2, r2, #7
 1788 004e 062A     		cmp	r2, #6
 1789 0050 03D0     		beq	.L407
 1790              	.L427:
 1791 0052 1A68     		ldr	r2, [r3]
 1792 0054 42F00102 		orr	r2, r2, #1
 1793 0058 1A60     		str	r2, [r3]
 1794              	.L407:
 1795 005a 0020     		movs	r0, #0
 1796 005c 7047     		bx	lr
 1797              	.L392:
 1798 005e 0429     		cmp	r1, #4
 1799 0060 10D0     		beq	.L429
 1800 0062 0829     		cmp	r1, #8
 1801 0064 16D0     		beq	.L430
 1802 0066 90F84130 		ldrb	r3, [r0, #65]	@ zero_extendqisi2
 1803 006a 012B     		cmp	r3, #1
 1804 006c 03D1     		bne	.L412
 1805 006e 0223     		movs	r3, #2
 1806 0070 80F84130 		strb	r3, [r0, #65]
 1807 0074 CCE7     		b	.L400
 1808              	.L412:
 1809 0076 0120     		movs	r0, #1
 1810 0078 7047     		bx	lr
 1811              	.L401:
 1812 007a 5A6C     		ldr	r2, [r3, #68]
 1813 007c 42F40042 		orr	r2, r2, #32768
 1814 0080 5A64     		str	r2, [r3, #68]
 1815 0082 E1E7     		b	.L403
 1816              	.L429:
ARM GAS  /tmp/cc58c9Ir.s 			page 32


 1817 0084 90F83F30 		ldrb	r3, [r0, #63]	@ zero_extendqisi2
 1818 0088 012B     		cmp	r3, #1
 1819 008a F4D1     		bne	.L412
 1820 008c 0223     		movs	r3, #2
 1821 008e 80F83F30 		strb	r3, [r0, #63]
 1822 0092 BDE7     		b	.L400
 1823              	.L430:
 1824 0094 90F84030 		ldrb	r3, [r0, #64]	@ zero_extendqisi2
 1825 0098 012B     		cmp	r3, #1
 1826 009a ECD1     		bne	.L412
 1827 009c 0223     		movs	r3, #2
 1828 009e 80F84030 		strb	r3, [r0, #64]
 1829 00a2 B5E7     		b	.L400
 1830              	.L428:
 1831 00a4 084A     		ldr	r2, .L431+12
 1832 00a6 9342     		cmp	r3, r2
 1833 00a8 CED0     		beq	.L403
 1834 00aa 084A     		ldr	r2, .L431+16
 1835 00ac 9342     		cmp	r3, r2
 1836 00ae CBD0     		beq	.L403
 1837 00b0 A2F59432 		sub	r2, r2, #75776
 1838 00b4 9342     		cmp	r3, r2
 1839 00b6 CCD1     		bne	.L427
 1840 00b8 C6E7     		b	.L403
 1841              	.L432:
 1842 00ba 00BF     		.align	2
 1843              	.L431:
 1844 00bc 00000140 		.word	1073807360
 1845 00c0 00040140 		.word	1073808384
 1846 00c4 00040040 		.word	1073742848
 1847 00c8 000C0040 		.word	1073744896
 1848 00cc 00400140 		.word	1073823744
 1850              		.section	.text.HAL_TIM_PWM_Stop,"ax",%progbits
 1851              		.align	1
 1852              		.p2align 2,,3
 1853              		.global	HAL_TIM_PWM_Stop
 1854              		.syntax unified
 1855              		.thumb
 1856              		.thumb_func
 1858              	HAL_TIM_PWM_Stop:
 1859              		@ args = 0, pretend = 0, frame = 0
 1860              		@ frame_needed = 0, uses_anonymous_args = 0
 1861              		@ link register save eliminated.
 1862 0000 0368     		ldr	r3, [r0]
 1863 0002 10B4     		push	{r4}
 1864 0004 1A6A     		ldr	r2, [r3, #32]
 1865 0006 01F01F04 		and	r4, r1, #31
 1866 000a 4FF0010C 		mov	ip, #1
 1867 000e 0CFA04FC 		lsl	ip, ip, r4
 1868 0012 22EA0C02 		bic	r2, r2, ip
 1869 0016 1A62     		str	r2, [r3, #32]
 1870 0018 204A     		ldr	r2, .L444
 1871 001a 1C6A     		ldr	r4, [r3, #32]
 1872 001c 1C62     		str	r4, [r3, #32]
 1873 001e 9342     		cmp	r3, r2
 1874 0020 15D0     		beq	.L434
 1875 0022 02F58062 		add	r2, r2, #1024
ARM GAS  /tmp/cc58c9Ir.s 			page 33


 1876 0026 9342     		cmp	r3, r2
 1877 0028 11D0     		beq	.L434
 1878              	.L435:
 1879 002a 1C6A     		ldr	r4, [r3, #32]
 1880 002c 41F21112 		movw	r2, #4369
 1881 0030 1442     		tst	r4, r2
 1882 0032 04D1     		bne	.L436
 1883 0034 1C6A     		ldr	r4, [r3, #32]
 1884 0036 40F24442 		movw	r2, #1092
 1885 003a 1442     		tst	r4, r2
 1886 003c 22D0     		beq	.L442
 1887              	.L436:
 1888 003e 0123     		movs	r3, #1
 1889 0040 A1B9     		cbnz	r1, .L437
 1890 0042 80F83E30 		strb	r3, [r0, #62]
 1891 0046 5DF8044B 		ldr	r4, [sp], #4
 1892 004a 0020     		movs	r0, #0
 1893 004c 7047     		bx	lr
 1894              	.L434:
 1895 004e 1C6A     		ldr	r4, [r3, #32]
 1896 0050 41F21112 		movw	r2, #4369
 1897 0054 1442     		tst	r4, r2
 1898 0056 E8D1     		bne	.L435
 1899 0058 1C6A     		ldr	r4, [r3, #32]
 1900 005a 40F24442 		movw	r2, #1092
 1901 005e 1442     		tst	r4, r2
 1902 0060 E3D1     		bne	.L435
 1903 0062 5A6C     		ldr	r2, [r3, #68]
 1904 0064 22F40042 		bic	r2, r2, #32768
 1905 0068 5A64     		str	r2, [r3, #68]
 1906 006a DEE7     		b	.L435
 1907              	.L437:
 1908 006c 0429     		cmp	r1, #4
 1909 006e 0ED0     		beq	.L443
 1910 0070 0829     		cmp	r1, #8
 1911 0072 0CBF     		ite	eq
 1912 0074 80F84030 		strbeq	r3, [r0, #64]
 1913 0078 80F84130 		strbne	r3, [r0, #65]
 1914 007c 5DF8044B 		ldr	r4, [sp], #4
 1915 0080 0020     		movs	r0, #0
 1916 0082 7047     		bx	lr
 1917              	.L442:
 1918 0084 1A68     		ldr	r2, [r3]
 1919 0086 22F00102 		bic	r2, r2, #1
 1920 008a 1A60     		str	r2, [r3]
 1921 008c D7E7     		b	.L436
 1922              	.L443:
 1923 008e 80F83F30 		strb	r3, [r0, #63]
 1924 0092 5DF8044B 		ldr	r4, [sp], #4
 1925 0096 0020     		movs	r0, #0
 1926 0098 7047     		bx	lr
 1927              	.L445:
 1928 009a 00BF     		.align	2
 1929              	.L444:
 1930 009c 00000140 		.word	1073807360
 1932              		.section	.text.HAL_TIM_PWM_Start_IT,"ax",%progbits
 1933              		.align	1
ARM GAS  /tmp/cc58c9Ir.s 			page 34


 1934              		.p2align 2,,3
 1935              		.global	HAL_TIM_PWM_Start_IT
 1936              		.syntax unified
 1937              		.thumb
 1938              		.thumb_func
 1940              	HAL_TIM_PWM_Start_IT:
 1941              		@ args = 0, pretend = 0, frame = 0
 1942              		@ frame_needed = 0, uses_anonymous_args = 0
 1943              		@ link register save eliminated.
 1944 0000 79BB     		cbnz	r1, .L447
 1945 0002 90F83E30 		ldrb	r3, [r0, #62]	@ zero_extendqisi2
 1946 0006 012B     		cmp	r3, #1
 1947 0008 38D1     		bne	.L448
 1948 000a 0368     		ldr	r3, [r0]
 1949 000c 0222     		movs	r2, #2
 1950 000e 80F83E20 		strb	r2, [r0, #62]
 1951 0012 DA68     		ldr	r2, [r3, #12]
 1952 0014 42F00202 		orr	r2, r2, #2
 1953 0018 DA60     		str	r2, [r3, #12]
 1954              	.L455:
 1955 001a 186A     		ldr	r0, [r3, #32]
 1956 001c 0122     		movs	r2, #1
 1957 001e 8A40     		lsls	r2, r2, r1
 1958 0020 20EA0200 		bic	r0, r0, r2
 1959 0024 1862     		str	r0, [r3, #32]
 1960 0026 186A     		ldr	r0, [r3, #32]
 1961 0028 2D49     		ldr	r1, .L484
 1962 002a 0243     		orrs	r2, r2, r0
 1963 002c 8B42     		cmp	r3, r1
 1964 002e 1A62     		str	r2, [r3, #32]
 1965 0030 26D0     		beq	.L456
 1966 0032 2C4A     		ldr	r2, .L484+4
 1967 0034 9342     		cmp	r3, r2
 1968 0036 23D0     		beq	.L456
 1969 0038 B3F1804F 		cmp	r3, #1073741824
 1970 003c 06D0     		beq	.L458
 1971 003e 2A4A     		ldr	r2, .L484+8
 1972 0040 9342     		cmp	r3, r2
 1973 0042 03D0     		beq	.L458
 1974 0044 02F58062 		add	r2, r2, #1024
 1975 0048 9342     		cmp	r3, r2
 1976 004a 3ED1     		bne	.L480
 1977              	.L458:
 1978 004c 9A68     		ldr	r2, [r3, #8]
 1979 004e 02F00702 		and	r2, r2, #7
 1980 0052 062A     		cmp	r2, #6
 1981 0054 03D0     		beq	.L462
 1982              	.L479:
 1983 0056 1A68     		ldr	r2, [r3]
 1984 0058 42F00102 		orr	r2, r2, #1
 1985 005c 1A60     		str	r2, [r3]
 1986              	.L462:
 1987 005e 0020     		movs	r0, #0
 1988 0060 7047     		bx	lr
 1989              	.L447:
 1990 0062 0429     		cmp	r1, #4
 1991 0064 11D0     		beq	.L481
ARM GAS  /tmp/cc58c9Ir.s 			page 35


 1992 0066 0829     		cmp	r1, #8
 1993 0068 1CD0     		beq	.L482
 1994 006a 90F84130 		ldrb	r3, [r0, #65]	@ zero_extendqisi2
 1995 006e 012B     		cmp	r3, #1
 1996 0070 04D1     		bne	.L448
 1997 0072 0223     		movs	r3, #2
 1998 0074 0C29     		cmp	r1, #12
 1999 0076 80F84130 		strb	r3, [r0, #65]
 2000 007a 20D0     		beq	.L483
 2001              	.L448:
 2002 007c 0120     		movs	r0, #1
 2003 007e 7047     		bx	lr
 2004              	.L456:
 2005 0080 5A6C     		ldr	r2, [r3, #68]
 2006 0082 42F40042 		orr	r2, r2, #32768
 2007 0086 5A64     		str	r2, [r3, #68]
 2008 0088 E0E7     		b	.L458
 2009              	.L481:
 2010 008a 90F83F30 		ldrb	r3, [r0, #63]	@ zero_extendqisi2
 2011 008e 012B     		cmp	r3, #1
 2012 0090 F4D1     		bne	.L448
 2013 0092 0368     		ldr	r3, [r0]
 2014 0094 0222     		movs	r2, #2
 2015 0096 80F83F20 		strb	r2, [r0, #63]
 2016 009a DA68     		ldr	r2, [r3, #12]
 2017 009c 42F00402 		orr	r2, r2, #4
 2018 00a0 DA60     		str	r2, [r3, #12]
 2019 00a2 BAE7     		b	.L455
 2020              	.L482:
 2021 00a4 90F84030 		ldrb	r3, [r0, #64]	@ zero_extendqisi2
 2022 00a8 012B     		cmp	r3, #1
 2023 00aa E7D1     		bne	.L448
 2024 00ac 0368     		ldr	r3, [r0]
 2025 00ae 0222     		movs	r2, #2
 2026 00b0 80F84020 		strb	r2, [r0, #64]
 2027 00b4 DA68     		ldr	r2, [r3, #12]
 2028 00b6 42F00802 		orr	r2, r2, #8
 2029 00ba DA60     		str	r2, [r3, #12]
 2030 00bc ADE7     		b	.L455
 2031              	.L483:
 2032 00be 0368     		ldr	r3, [r0]
 2033 00c0 DA68     		ldr	r2, [r3, #12]
 2034 00c2 42F01002 		orr	r2, r2, #16
 2035 00c6 DA60     		str	r2, [r3, #12]
 2036 00c8 A7E7     		b	.L455
 2037              	.L480:
 2038 00ca 084A     		ldr	r2, .L484+12
 2039 00cc 9342     		cmp	r3, r2
 2040 00ce BDD0     		beq	.L458
 2041 00d0 074A     		ldr	r2, .L484+16
 2042 00d2 9342     		cmp	r3, r2
 2043 00d4 BAD0     		beq	.L458
 2044 00d6 A2F59432 		sub	r2, r2, #75776
 2045 00da 9342     		cmp	r3, r2
 2046 00dc BBD1     		bne	.L479
 2047 00de B5E7     		b	.L458
 2048              	.L485:
ARM GAS  /tmp/cc58c9Ir.s 			page 36


 2049              		.align	2
 2050              	.L484:
 2051 00e0 00000140 		.word	1073807360
 2052 00e4 00040140 		.word	1073808384
 2053 00e8 00040040 		.word	1073742848
 2054 00ec 000C0040 		.word	1073744896
 2055 00f0 00400140 		.word	1073823744
 2057              		.section	.text.HAL_TIM_PWM_Stop_IT,"ax",%progbits
 2058              		.align	1
 2059              		.p2align 2,,3
 2060              		.global	HAL_TIM_PWM_Stop_IT
 2061              		.syntax unified
 2062              		.thumb
 2063              		.thumb_func
 2065              	HAL_TIM_PWM_Stop_IT:
 2066              		@ args = 0, pretend = 0, frame = 0
 2067              		@ frame_needed = 0, uses_anonymous_args = 0
 2068              		@ link register save eliminated.
 2069 0000 0C29     		cmp	r1, #12
 2070 0002 1DD8     		bhi	.L501
 2071 0004 01A3     		adr	r3, .L489
 2072 0006 53F821F0 		ldr	pc, [r3, r1, lsl #2]
 2073 000a 00BF     		.p2align 2
 2074              	.L489:
 2075 000c B7000000 		.word	.L492+1
 2076 0010 41000000 		.word	.L501+1
 2077 0014 41000000 		.word	.L501+1
 2078 0018 41000000 		.word	.L501+1
 2079 001c AB000000 		.word	.L491+1
 2080 0020 41000000 		.word	.L501+1
 2081 0024 41000000 		.word	.L501+1
 2082 0028 41000000 		.word	.L501+1
 2083 002c 9F000000 		.word	.L490+1
 2084 0030 41000000 		.word	.L501+1
 2085 0034 41000000 		.word	.L501+1
 2086 0038 41000000 		.word	.L501+1
 2087 003c 45000000 		.word	.L488+1
 2088              		.p2align 1
 2089              	.L501:
 2090 0040 0120     		movs	r0, #1
 2091 0042 7047     		bx	lr
 2092              	.L488:
 2093 0044 0368     		ldr	r3, [r0]
 2094 0046 DA68     		ldr	r2, [r3, #12]
 2095 0048 22F01002 		bic	r2, r2, #16
 2096 004c DA60     		str	r2, [r3, #12]
 2097              	.L493:
 2098 004e 1A6A     		ldr	r2, [r3, #32]
 2099 0050 4FF0010C 		mov	ip, #1
 2100 0054 0CFA01FC 		lsl	ip, ip, r1
 2101 0058 22EA0C02 		bic	r2, r2, ip
 2102 005c 10B4     		push	{r4}
 2103 005e 1A62     		str	r2, [r3, #32]
 2104 0060 284A     		ldr	r2, .L506
 2105 0062 1C6A     		ldr	r4, [r3, #32]
 2106 0064 1C62     		str	r4, [r3, #32]
 2107 0066 9342     		cmp	r3, r2
ARM GAS  /tmp/cc58c9Ir.s 			page 37


 2108 0068 2BD0     		beq	.L494
 2109 006a 02F58062 		add	r2, r2, #1024
 2110 006e 9342     		cmp	r3, r2
 2111 0070 27D0     		beq	.L494
 2112              	.L495:
 2113 0072 1C6A     		ldr	r4, [r3, #32]
 2114 0074 41F21112 		movw	r2, #4369
 2115 0078 1442     		tst	r4, r2
 2116 007a 08D1     		bne	.L496
 2117 007c 1C6A     		ldr	r4, [r3, #32]
 2118 007e 40F24442 		movw	r2, #1092
 2119 0082 1442     		tst	r4, r2
 2120 0084 03D1     		bne	.L496
 2121 0086 1A68     		ldr	r2, [r3]
 2122 0088 22F00102 		bic	r2, r2, #1
 2123 008c 1A60     		str	r2, [r3]
 2124              	.L496:
 2125 008e 0123     		movs	r3, #1
 2126 0090 31BB     		cbnz	r1, .L497
 2127 0092 80F83E30 		strb	r3, [r0, #62]
 2128 0096 5DF8044B 		ldr	r4, [sp], #4
 2129 009a 0020     		movs	r0, #0
 2130 009c 7047     		bx	lr
 2131              	.L490:
 2132 009e 0368     		ldr	r3, [r0]
 2133 00a0 DA68     		ldr	r2, [r3, #12]
 2134 00a2 22F00802 		bic	r2, r2, #8
 2135 00a6 DA60     		str	r2, [r3, #12]
 2136 00a8 D1E7     		b	.L493
 2137              	.L491:
 2138 00aa 0368     		ldr	r3, [r0]
 2139 00ac DA68     		ldr	r2, [r3, #12]
 2140 00ae 22F00402 		bic	r2, r2, #4
 2141 00b2 DA60     		str	r2, [r3, #12]
 2142 00b4 CBE7     		b	.L493
 2143              	.L492:
 2144 00b6 0368     		ldr	r3, [r0]
 2145 00b8 DA68     		ldr	r2, [r3, #12]
 2146 00ba 22F00202 		bic	r2, r2, #2
 2147 00be DA60     		str	r2, [r3, #12]
 2148 00c0 C5E7     		b	.L493
 2149              	.L494:
 2150 00c2 1C6A     		ldr	r4, [r3, #32]
 2151 00c4 41F21112 		movw	r2, #4369
 2152 00c8 1442     		tst	r4, r2
 2153 00ca D2D1     		bne	.L495
 2154 00cc 1C6A     		ldr	r4, [r3, #32]
 2155 00ce 40F24442 		movw	r2, #1092
 2156 00d2 1442     		tst	r4, r2
 2157 00d4 CDD1     		bne	.L495
 2158 00d6 5A6C     		ldr	r2, [r3, #68]
 2159 00d8 22F40042 		bic	r2, r2, #32768
 2160 00dc 5A64     		str	r2, [r3, #68]
 2161 00de C8E7     		b	.L495
 2162              	.L497:
 2163 00e0 0429     		cmp	r1, #4
 2164 00e2 09D0     		beq	.L505
ARM GAS  /tmp/cc58c9Ir.s 			page 38


 2165 00e4 0829     		cmp	r1, #8
 2166 00e6 0CBF     		ite	eq
 2167 00e8 80F84030 		strbeq	r3, [r0, #64]
 2168 00ec 80F84130 		strbne	r3, [r0, #65]
 2169 00f0 5DF8044B 		ldr	r4, [sp], #4
 2170 00f4 0020     		movs	r0, #0
 2171 00f6 7047     		bx	lr
 2172              	.L505:
 2173 00f8 80F83F30 		strb	r3, [r0, #63]
 2174 00fc 5DF8044B 		ldr	r4, [sp], #4
 2175 0100 0020     		movs	r0, #0
 2176 0102 7047     		bx	lr
 2177              	.L507:
 2178              		.align	2
 2179              	.L506:
 2180 0104 00000140 		.word	1073807360
 2182              		.section	.text.HAL_TIM_PWM_Start_DMA,"ax",%progbits
 2183              		.align	1
 2184              		.p2align 2,,3
 2185              		.global	HAL_TIM_PWM_Start_DMA
 2186              		.syntax unified
 2187              		.thumb
 2188              		.thumb_func
 2190              	HAL_TIM_PWM_Start_DMA:
 2191              		@ args = 0, pretend = 0, frame = 0
 2192              		@ frame_needed = 0, uses_anonymous_args = 0
 2193 0000 70B5     		push	{r4, r5, r6, lr}
 2194 0002 0446     		mov	r4, r0
 2195 0004 0D46     		mov	r5, r1
 2196 0006 0029     		cmp	r1, #0
 2197 0008 50D1     		bne	.L509
 2198 000a 90F83E10 		ldrb	r1, [r0, #62]	@ zero_extendqisi2
 2199 000e 0229     		cmp	r1, #2
 2200 0010 C8B2     		uxtb	r0, r1
 2201 0012 4AD0     		beq	.L538
 2202 0014 94F83E10 		ldrb	r1, [r4, #62]	@ zero_extendqisi2
 2203 0018 0129     		cmp	r1, #1
 2204 001a 5BD1     		bne	.L528
 2205 001c 002A     		cmp	r2, #0
 2206 001e 59D0     		beq	.L528
 2207 0020 002B     		cmp	r3, #0
 2208 0022 57D0     		beq	.L528
 2209 0024 606A     		ldr	r0, [r4, #36]
 2210 0026 5D4E     		ldr	r6, .L598
 2211 0028 0221     		movs	r1, #2
 2212 002a 84F83E10 		strb	r1, [r4, #62]
 2213 002e 1146     		mov	r1, r2
 2214 0030 2268     		ldr	r2, [r4]
 2215 0032 C663     		str	r6, [r0, #60]
 2216 0034 5A4E     		ldr	r6, .L598+4
 2217 0036 0664     		str	r6, [r0, #64]
 2218 0038 5A4E     		ldr	r6, .L598+8
 2219 003a C664     		str	r6, [r0, #76]
 2220 003c 3432     		adds	r2, r2, #52
 2221 003e FFF7FEFF 		bl	HAL_DMA_Start_IT
 2222 0042 0028     		cmp	r0, #0
 2223 0044 46D1     		bne	.L528
ARM GAS  /tmp/cc58c9Ir.s 			page 39


 2224 0046 2368     		ldr	r3, [r4]
 2225 0048 DA68     		ldr	r2, [r3, #12]
 2226 004a 42F40072 		orr	r2, r2, #512
 2227 004e DA60     		str	r2, [r3, #12]
 2228              	.L529:
 2229 0050 196A     		ldr	r1, [r3, #32]
 2230 0052 0122     		movs	r2, #1
 2231 0054 AA40     		lsls	r2, r2, r5
 2232 0056 21EA0201 		bic	r1, r1, r2
 2233 005a 1962     		str	r1, [r3, #32]
 2234 005c 186A     		ldr	r0, [r3, #32]
 2235 005e 5249     		ldr	r1, .L598+12
 2236 0060 0243     		orrs	r2, r2, r0
 2237 0062 8B42     		cmp	r3, r1
 2238 0064 1A62     		str	r2, [r3, #32]
 2239 0066 7FD0     		beq	.L530
 2240 0068 504A     		ldr	r2, .L598+16
 2241 006a 9342     		cmp	r3, r2
 2242 006c 7CD0     		beq	.L530
 2243 006e B3F1804F 		cmp	r3, #1073741824
 2244 0072 10D0     		beq	.L532
 2245 0074 4E4A     		ldr	r2, .L598+20
 2246 0076 9342     		cmp	r3, r2
 2247 0078 0DD0     		beq	.L532
 2248 007a 02F58062 		add	r2, r2, #1024
 2249 007e 9342     		cmp	r3, r2
 2250 0080 09D0     		beq	.L532
 2251 0082 4C4A     		ldr	r2, .L598+24
 2252 0084 9342     		cmp	r3, r2
 2253 0086 06D0     		beq	.L532
 2254 0088 4B4A     		ldr	r2, .L598+28
 2255 008a 9342     		cmp	r3, r2
 2256 008c 03D0     		beq	.L532
 2257 008e A2F59432 		sub	r2, r2, #75776
 2258 0092 9342     		cmp	r3, r2
 2259 0094 04D1     		bne	.L535
 2260              	.L532:
 2261 0096 9A68     		ldr	r2, [r3, #8]
 2262 0098 02F00702 		and	r2, r2, #7
 2263 009c 062A     		cmp	r2, #6
 2264 009e 03D0     		beq	.L536
 2265              	.L535:
 2266 00a0 1A68     		ldr	r2, [r3]
 2267 00a2 42F00102 		orr	r2, r2, #1
 2268 00a6 1A60     		str	r2, [r3]
 2269              	.L536:
 2270 00a8 0020     		movs	r0, #0
 2271              	.L538:
 2272 00aa 70BD     		pop	{r4, r5, r6, pc}
 2273              	.L509:
 2274 00ac 0429     		cmp	r1, #4
 2275 00ae 13D0     		beq	.L595
 2276 00b0 0829     		cmp	r1, #8
 2277 00b2 35D0     		beq	.L596
 2278 00b4 90F84110 		ldrb	r1, [r0, #65]	@ zero_extendqisi2
 2279 00b8 0229     		cmp	r1, #2
 2280 00ba C8B2     		uxtb	r0, r1
ARM GAS  /tmp/cc58c9Ir.s 			page 40


 2281 00bc F5D0     		beq	.L538
 2282 00be 94F84110 		ldrb	r1, [r4, #65]	@ zero_extendqisi2
 2283 00c2 0129     		cmp	r1, #1
 2284 00c4 06D1     		bne	.L528
 2285 00c6 2AB1     		cbz	r2, .L528
 2286 00c8 23B1     		cbz	r3, .L528
 2287 00ca 0221     		movs	r1, #2
 2288 00cc 0C2D     		cmp	r5, #12
 2289 00ce 84F84110 		strb	r1, [r4, #65]
 2290 00d2 4ED0     		beq	.L597
 2291              	.L528:
 2292 00d4 0120     		movs	r0, #1
 2293 00d6 70BD     		pop	{r4, r5, r6, pc}
 2294              	.L595:
 2295 00d8 90F83F10 		ldrb	r1, [r0, #63]	@ zero_extendqisi2
 2296 00dc 0229     		cmp	r1, #2
 2297 00de C8B2     		uxtb	r0, r1
 2298 00e0 E3D0     		beq	.L538
 2299 00e2 94F83F10 		ldrb	r1, [r4, #63]	@ zero_extendqisi2
 2300 00e6 0129     		cmp	r1, #1
 2301 00e8 F4D1     		bne	.L528
 2302 00ea 002A     		cmp	r2, #0
 2303 00ec F2D0     		beq	.L528
 2304 00ee 002B     		cmp	r3, #0
 2305 00f0 F0D0     		beq	.L528
 2306 00f2 A06A     		ldr	r0, [r4, #40]
 2307 00f4 294E     		ldr	r6, .L598
 2308 00f6 0221     		movs	r1, #2
 2309 00f8 84F83F10 		strb	r1, [r4, #63]
 2310 00fc 1146     		mov	r1, r2
 2311 00fe 2268     		ldr	r2, [r4]
 2312 0100 C663     		str	r6, [r0, #60]
 2313 0102 274E     		ldr	r6, .L598+4
 2314 0104 0664     		str	r6, [r0, #64]
 2315 0106 274E     		ldr	r6, .L598+8
 2316 0108 C664     		str	r6, [r0, #76]
 2317 010a 3832     		adds	r2, r2, #56
 2318 010c FFF7FEFF 		bl	HAL_DMA_Start_IT
 2319 0110 0028     		cmp	r0, #0
 2320 0112 DFD1     		bne	.L528
 2321 0114 2368     		ldr	r3, [r4]
 2322 0116 DA68     		ldr	r2, [r3, #12]
 2323 0118 42F48062 		orr	r2, r2, #1024
 2324 011c DA60     		str	r2, [r3, #12]
 2325 011e 97E7     		b	.L529
 2326              	.L596:
 2327 0120 90F84010 		ldrb	r1, [r0, #64]	@ zero_extendqisi2
 2328 0124 0229     		cmp	r1, #2
 2329 0126 C8B2     		uxtb	r0, r1
 2330 0128 BFD0     		beq	.L538
 2331 012a 94F84010 		ldrb	r1, [r4, #64]	@ zero_extendqisi2
 2332 012e 0129     		cmp	r1, #1
 2333 0130 D0D1     		bne	.L528
 2334 0132 002A     		cmp	r2, #0
 2335 0134 CED0     		beq	.L528
 2336 0136 002B     		cmp	r3, #0
 2337 0138 CCD0     		beq	.L528
ARM GAS  /tmp/cc58c9Ir.s 			page 41


 2338 013a E06A     		ldr	r0, [r4, #44]
 2339 013c 174E     		ldr	r6, .L598
 2340 013e 0221     		movs	r1, #2
 2341 0140 84F84010 		strb	r1, [r4, #64]
 2342 0144 1146     		mov	r1, r2
 2343 0146 2268     		ldr	r2, [r4]
 2344 0148 C663     		str	r6, [r0, #60]
 2345 014a 154E     		ldr	r6, .L598+4
 2346 014c 0664     		str	r6, [r0, #64]
 2347 014e 154E     		ldr	r6, .L598+8
 2348 0150 C664     		str	r6, [r0, #76]
 2349 0152 3C32     		adds	r2, r2, #60
 2350 0154 FFF7FEFF 		bl	HAL_DMA_Start_IT
 2351 0158 0028     		cmp	r0, #0
 2352 015a BBD1     		bne	.L528
 2353 015c 2368     		ldr	r3, [r4]
 2354 015e DA68     		ldr	r2, [r3, #12]
 2355 0160 42F40062 		orr	r2, r2, #2048
 2356 0164 DA60     		str	r2, [r3, #12]
 2357 0166 73E7     		b	.L529
 2358              	.L530:
 2359 0168 5A6C     		ldr	r2, [r3, #68]
 2360 016a 42F40042 		orr	r2, r2, #32768
 2361 016e 5A64     		str	r2, [r3, #68]
 2362 0170 91E7     		b	.L532
 2363              	.L597:
 2364 0172 206B     		ldr	r0, [r4, #48]
 2365 0174 094E     		ldr	r6, .L598
 2366 0176 1146     		mov	r1, r2
 2367 0178 2268     		ldr	r2, [r4]
 2368 017a C663     		str	r6, [r0, #60]
 2369 017c 084E     		ldr	r6, .L598+4
 2370 017e 0664     		str	r6, [r0, #64]
 2371 0180 084E     		ldr	r6, .L598+8
 2372 0182 C664     		str	r6, [r0, #76]
 2373 0184 4032     		adds	r2, r2, #64
 2374 0186 FFF7FEFF 		bl	HAL_DMA_Start_IT
 2375 018a 0028     		cmp	r0, #0
 2376 018c A2D1     		bne	.L528
 2377 018e 2368     		ldr	r3, [r4]
 2378 0190 DA68     		ldr	r2, [r3, #12]
 2379 0192 42F48052 		orr	r2, r2, #4096
 2380 0196 DA60     		str	r2, [r3, #12]
 2381 0198 5AE7     		b	.L529
 2382              	.L599:
 2383 019a 00BF     		.align	2
 2384              	.L598:
 2385 019c 00000000 		.word	TIM_DMADelayPulseCplt
 2386 01a0 00000000 		.word	TIM_DMADelayPulseHalfCplt
 2387 01a4 00000000 		.word	TIM_DMAError
 2388 01a8 00000140 		.word	1073807360
 2389 01ac 00040140 		.word	1073808384
 2390 01b0 00040040 		.word	1073742848
 2391 01b4 000C0040 		.word	1073744896
 2392 01b8 00400140 		.word	1073823744
 2394              		.section	.text.HAL_TIM_PWM_Stop_DMA,"ax",%progbits
 2395              		.align	1
ARM GAS  /tmp/cc58c9Ir.s 			page 42


 2396              		.p2align 2,,3
 2397              		.global	HAL_TIM_PWM_Stop_DMA
 2398              		.syntax unified
 2399              		.thumb
 2400              		.thumb_func
 2402              	HAL_TIM_PWM_Stop_DMA:
 2403              		@ args = 0, pretend = 0, frame = 0
 2404              		@ frame_needed = 0, uses_anonymous_args = 0
 2405 0000 38B5     		push	{r3, r4, r5, lr}
 2406 0002 0C46     		mov	r4, r1
 2407 0004 0546     		mov	r5, r0
 2408 0006 0C29     		cmp	r1, #12
 2409 0008 1CD8     		bhi	.L615
 2410 000a 01A3     		adr	r3, .L603
 2411 000c 53F821F0 		ldr	pc, [r3, r1, lsl #2]
 2412              		.p2align 2
 2413              	.L603:
 2414 0010 C5000000 		.word	.L606+1
 2415 0014 45000000 		.word	.L615+1
 2416 0018 45000000 		.word	.L615+1
 2417 001c 45000000 		.word	.L615+1
 2418 0020 B3000000 		.word	.L605+1
 2419 0024 45000000 		.word	.L615+1
 2420 0028 45000000 		.word	.L615+1
 2421 002c 45000000 		.word	.L615+1
 2422 0030 A1000000 		.word	.L604+1
 2423 0034 45000000 		.word	.L615+1
 2424 0038 45000000 		.word	.L615+1
 2425 003c 45000000 		.word	.L615+1
 2426 0040 49000000 		.word	.L602+1
 2427              		.p2align 1
 2428              	.L615:
 2429 0044 0120     		movs	r0, #1
 2430 0046 38BD     		pop	{r3, r4, r5, pc}
 2431              	.L602:
 2432 0048 0268     		ldr	r2, [r0]
 2433 004a 006B     		ldr	r0, [r0, #48]
 2434 004c D368     		ldr	r3, [r2, #12]
 2435 004e 23F48053 		bic	r3, r3, #4096
 2436 0052 D360     		str	r3, [r2, #12]
 2437 0054 FFF7FEFF 		bl	HAL_DMA_Abort_IT
 2438              	.L607:
 2439 0058 2B68     		ldr	r3, [r5]
 2440 005a 0121     		movs	r1, #1
 2441 005c 1A6A     		ldr	r2, [r3, #32]
 2442 005e A140     		lsls	r1, r1, r4
 2443 0060 22EA0102 		bic	r2, r2, r1
 2444 0064 1A62     		str	r2, [r3, #32]
 2445 0066 294A     		ldr	r2, .L618
 2446 0068 196A     		ldr	r1, [r3, #32]
 2447 006a 1962     		str	r1, [r3, #32]
 2448 006c 9342     		cmp	r3, r2
 2449 006e 32D0     		beq	.L608
 2450 0070 02F58062 		add	r2, r2, #1024
 2451 0074 9342     		cmp	r3, r2
 2452 0076 2ED0     		beq	.L608
 2453              	.L609:
ARM GAS  /tmp/cc58c9Ir.s 			page 43


 2454 0078 196A     		ldr	r1, [r3, #32]
 2455 007a 41F21112 		movw	r2, #4369
 2456 007e 1142     		tst	r1, r2
 2457 0080 08D1     		bne	.L610
 2458 0082 196A     		ldr	r1, [r3, #32]
 2459 0084 40F24442 		movw	r2, #1092
 2460 0088 1142     		tst	r1, r2
 2461 008a 03D1     		bne	.L610
 2462 008c 1A68     		ldr	r2, [r3]
 2463 008e 22F00102 		bic	r2, r2, #1
 2464 0092 1A60     		str	r2, [r3]
 2465              	.L610:
 2466 0094 0123     		movs	r3, #1
 2467 0096 6CBB     		cbnz	r4, .L611
 2468 0098 85F83E30 		strb	r3, [r5, #62]
 2469              	.L612:
 2470 009c 0020     		movs	r0, #0
 2471 009e 38BD     		pop	{r3, r4, r5, pc}
 2472              	.L604:
 2473 00a0 0268     		ldr	r2, [r0]
 2474 00a2 C06A     		ldr	r0, [r0, #44]
 2475 00a4 D368     		ldr	r3, [r2, #12]
 2476 00a6 23F40063 		bic	r3, r3, #2048
 2477 00aa D360     		str	r3, [r2, #12]
 2478 00ac FFF7FEFF 		bl	HAL_DMA_Abort_IT
 2479 00b0 D2E7     		b	.L607
 2480              	.L605:
 2481 00b2 0268     		ldr	r2, [r0]
 2482 00b4 806A     		ldr	r0, [r0, #40]
 2483 00b6 D368     		ldr	r3, [r2, #12]
 2484 00b8 23F48063 		bic	r3, r3, #1024
 2485 00bc D360     		str	r3, [r2, #12]
 2486 00be FFF7FEFF 		bl	HAL_DMA_Abort_IT
 2487 00c2 C9E7     		b	.L607
 2488              	.L606:
 2489 00c4 0268     		ldr	r2, [r0]
 2490 00c6 406A     		ldr	r0, [r0, #36]
 2491 00c8 D368     		ldr	r3, [r2, #12]
 2492 00ca 23F40073 		bic	r3, r3, #512
 2493 00ce D360     		str	r3, [r2, #12]
 2494 00d0 FFF7FEFF 		bl	HAL_DMA_Abort_IT
 2495 00d4 C0E7     		b	.L607
 2496              	.L608:
 2497 00d6 196A     		ldr	r1, [r3, #32]
 2498 00d8 41F21112 		movw	r2, #4369
 2499 00dc 1142     		tst	r1, r2
 2500 00de CBD1     		bne	.L609
 2501 00e0 196A     		ldr	r1, [r3, #32]
 2502 00e2 40F24442 		movw	r2, #1092
 2503 00e6 1142     		tst	r1, r2
 2504 00e8 C6D1     		bne	.L609
 2505 00ea 5A6C     		ldr	r2, [r3, #68]
 2506 00ec 22F40042 		bic	r2, r2, #32768
 2507 00f0 5A64     		str	r2, [r3, #68]
 2508 00f2 C1E7     		b	.L609
 2509              	.L611:
 2510 00f4 042C     		cmp	r4, #4
ARM GAS  /tmp/cc58c9Ir.s 			page 44


 2511 00f6 06D0     		beq	.L617
 2512 00f8 082C     		cmp	r4, #8
 2513 00fa 0CBF     		ite	eq
 2514 00fc 85F84030 		strbeq	r3, [r5, #64]
 2515 0100 85F84130 		strbne	r3, [r5, #65]
 2516 0104 CAE7     		b	.L612
 2517              	.L617:
 2518 0106 85F83F30 		strb	r3, [r5, #63]
 2519 010a C7E7     		b	.L612
 2520              	.L619:
 2521              		.align	2
 2522              	.L618:
 2523 010c 00000140 		.word	1073807360
 2525              		.section	.text.HAL_TIM_IC_MspInit,"ax",%progbits
 2526              		.align	1
 2527              		.p2align 2,,3
 2528              		.weak	HAL_TIM_IC_MspInit
 2529              		.syntax unified
 2530              		.thumb
 2531              		.thumb_func
 2533              	HAL_TIM_IC_MspInit:
 2534              		@ args = 0, pretend = 0, frame = 0
 2535              		@ frame_needed = 0, uses_anonymous_args = 0
 2536              		@ link register save eliminated.
 2537 0000 7047     		bx	lr
 2539 0002 00BF     		.section	.text.HAL_TIM_IC_Init,"ax",%progbits
 2540              		.align	1
 2541              		.p2align 2,,3
 2542              		.global	HAL_TIM_IC_Init
 2543              		.syntax unified
 2544              		.thumb
 2545              		.thumb_func
 2547              	HAL_TIM_IC_Init:
 2548              		@ args = 0, pretend = 0, frame = 0
 2549              		@ frame_needed = 0, uses_anonymous_args = 0
 2550 0000 0028     		cmp	r0, #0
 2551 0002 00F08F80 		beq	.L636
 2552 0006 38B5     		push	{r3, r4, r5, lr}
 2553 0008 90F83D30 		ldrb	r3, [r0, #61]	@ zero_extendqisi2
 2554 000c 0446     		mov	r4, r0
 2555 000e 03F0FF02 		and	r2, r3, #255
 2556 0012 002B     		cmp	r3, #0
 2557 0014 00F08180 		beq	.L647
 2558              	.L623:
 2559 0018 2268     		ldr	r2, [r4]
 2560 001a 4349     		ldr	r1, .L648
 2561 001c 0223     		movs	r3, #2
 2562 001e 84F83D30 		strb	r3, [r4, #61]
 2563 0022 8A42     		cmp	r2, r1
 2564 0024 1368     		ldr	r3, [r2]
 2565 0026 64D0     		beq	.L624
 2566 0028 B2F1804F 		cmp	r2, #1073741824
 2567 002c 30D0     		beq	.L625
 2568 002e A1F57C41 		sub	r1, r1, #64512
 2569 0032 8A42     		cmp	r2, r1
 2570 0034 2CD0     		beq	.L625
 2571 0036 01F58061 		add	r1, r1, #1024
ARM GAS  /tmp/cc58c9Ir.s 			page 45


 2572 003a 8A42     		cmp	r2, r1
 2573 003c 28D0     		beq	.L625
 2574 003e 01F58061 		add	r1, r1, #1024
 2575 0042 8A42     		cmp	r2, r1
 2576 0044 24D0     		beq	.L625
 2577 0046 01F57841 		add	r1, r1, #63488
 2578 004a 8A42     		cmp	r2, r1
 2579 004c 51D0     		beq	.L624
 2580 004e 3749     		ldr	r1, .L648+4
 2581 0050 8A42     		cmp	r2, r1
 2582 0052 21D0     		beq	.L631
 2583 0054 01F58061 		add	r1, r1, #1024
 2584 0058 8A42     		cmp	r2, r1
 2585 005a 1DD0     		beq	.L631
 2586 005c 01F58061 		add	r1, r1, #1024
 2587 0060 8A42     		cmp	r2, r1
 2588 0062 19D0     		beq	.L631
 2589 0064 A1F59831 		sub	r1, r1, #77824
 2590 0068 8A42     		cmp	r2, r1
 2591 006a 15D0     		beq	.L631
 2592 006c 01F58061 		add	r1, r1, #1024
 2593 0070 8A42     		cmp	r2, r1
 2594 0072 11D0     		beq	.L631
 2595 0074 01F58061 		add	r1, r1, #1024
 2596 0078 8A42     		cmp	r2, r1
 2597 007a 0DD0     		beq	.L631
 2598 007c A569     		ldr	r5, [r4, #24]
 2599 007e 6168     		ldr	r1, [r4, #4]
 2600 0080 E068     		ldr	r0, [r4, #12]
 2601 0082 23F08003 		bic	r3, r3, #128
 2602 0086 2B43     		orrs	r3, r3, r5
 2603 0088 1360     		str	r3, [r2]
 2604 008a D062     		str	r0, [r2, #44]
 2605 008c 9162     		str	r1, [r2, #40]
 2606 008e 10E0     		b	.L635
 2607              	.L625:
 2608 0090 A168     		ldr	r1, [r4, #8]
 2609 0092 23F07003 		bic	r3, r3, #112
 2610 0096 0B43     		orrs	r3, r3, r1
 2611              	.L631:
 2612 0098 2069     		ldr	r0, [r4, #16]
 2613 009a A169     		ldr	r1, [r4, #24]
 2614 009c 23F44073 		bic	r3, r3, #768
 2615 00a0 0343     		orrs	r3, r3, r0
 2616 00a2 23F08003 		bic	r3, r3, #128
 2617 00a6 E068     		ldr	r0, [r4, #12]
 2618 00a8 0B43     		orrs	r3, r3, r1
 2619 00aa 6168     		ldr	r1, [r4, #4]
 2620 00ac 1360     		str	r3, [r2]
 2621 00ae D062     		str	r0, [r2, #44]
 2622 00b0 9162     		str	r1, [r2, #40]
 2623              	.L635:
 2624 00b2 0123     		movs	r3, #1
 2625 00b4 5361     		str	r3, [r2, #20]
 2626 00b6 1369     		ldr	r3, [r2, #16]
 2627 00b8 DB07     		lsls	r3, r3, #31
 2628 00ba 03D5     		bpl	.L634
ARM GAS  /tmp/cc58c9Ir.s 			page 46


 2629 00bc 1369     		ldr	r3, [r2, #16]
 2630 00be 23F00103 		bic	r3, r3, #1
 2631 00c2 1361     		str	r3, [r2, #16]
 2632              	.L634:
 2633 00c4 0123     		movs	r3, #1
 2634 00c6 84F84630 		strb	r3, [r4, #70]
 2635 00ca 84F83E30 		strb	r3, [r4, #62]
 2636 00ce 84F83F30 		strb	r3, [r4, #63]
 2637 00d2 84F84030 		strb	r3, [r4, #64]
 2638 00d6 84F84130 		strb	r3, [r4, #65]
 2639 00da 84F84230 		strb	r3, [r4, #66]
 2640 00de 84F84330 		strb	r3, [r4, #67]
 2641 00e2 84F84430 		strb	r3, [r4, #68]
 2642 00e6 84F84530 		strb	r3, [r4, #69]
 2643 00ea 84F83D30 		strb	r3, [r4, #61]
 2644 00ee 0020     		movs	r0, #0
 2645 00f0 38BD     		pop	{r3, r4, r5, pc}
 2646              	.L624:
 2647 00f2 A068     		ldr	r0, [r4, #8]
 2648 00f4 2169     		ldr	r1, [r4, #16]
 2649 00f6 23F07003 		bic	r3, r3, #112
 2650 00fa 0343     		orrs	r3, r3, r0
 2651 00fc 23F44073 		bic	r3, r3, #768
 2652 0100 0B43     		orrs	r3, r3, r1
 2653 0102 A169     		ldr	r1, [r4, #24]
 2654 0104 23F08003 		bic	r3, r3, #128
 2655 0108 0B43     		orrs	r3, r3, r1
 2656 010a 1360     		str	r3, [r2]
 2657 010c E368     		ldr	r3, [r4, #12]
 2658 010e D362     		str	r3, [r2, #44]
 2659 0110 6368     		ldr	r3, [r4, #4]
 2660 0112 9362     		str	r3, [r2, #40]
 2661 0114 6369     		ldr	r3, [r4, #20]
 2662 0116 1363     		str	r3, [r2, #48]
 2663 0118 CBE7     		b	.L635
 2664              	.L647:
 2665 011a 80F83C20 		strb	r2, [r0, #60]
 2666 011e FFF7FEFF 		bl	HAL_TIM_IC_MspInit
 2667 0122 79E7     		b	.L623
 2668              	.L636:
 2669 0124 0120     		movs	r0, #1
 2670 0126 7047     		bx	lr
 2671              	.L649:
 2672              		.align	2
 2673              	.L648:
 2674 0128 00000140 		.word	1073807360
 2675 012c 00400140 		.word	1073823744
 2677              		.section	.text.HAL_TIM_IC_MspDeInit,"ax",%progbits
 2678              		.align	1
 2679              		.p2align 2,,3
 2680              		.weak	HAL_TIM_IC_MspDeInit
 2681              		.syntax unified
 2682              		.thumb
 2683              		.thumb_func
 2685              	HAL_TIM_IC_MspDeInit:
 2686              		@ args = 0, pretend = 0, frame = 0
 2687              		@ frame_needed = 0, uses_anonymous_args = 0
ARM GAS  /tmp/cc58c9Ir.s 			page 47


 2688              		@ link register save eliminated.
 2689 0000 7047     		bx	lr
 2691 0002 00BF     		.section	.text.HAL_TIM_IC_DeInit,"ax",%progbits
 2692              		.align	1
 2693              		.p2align 2,,3
 2694              		.global	HAL_TIM_IC_DeInit
 2695              		.syntax unified
 2696              		.thumb
 2697              		.thumb_func
 2699              	HAL_TIM_IC_DeInit:
 2700              		@ args = 0, pretend = 0, frame = 0
 2701              		@ frame_needed = 0, uses_anonymous_args = 0
 2702 0000 0222     		movs	r2, #2
 2703 0002 0368     		ldr	r3, [r0]
 2704 0004 10B5     		push	{r4, lr}
 2705 0006 80F83D20 		strb	r2, [r0, #61]
 2706 000a 196A     		ldr	r1, [r3, #32]
 2707 000c 41F21112 		movw	r2, #4369
 2708 0010 1142     		tst	r1, r2
 2709 0012 0446     		mov	r4, r0
 2710 0014 08D1     		bne	.L652
 2711 0016 196A     		ldr	r1, [r3, #32]
 2712 0018 40F24442 		movw	r2, #1092
 2713 001c 1142     		tst	r1, r2
 2714 001e 03D1     		bne	.L652
 2715 0020 1A68     		ldr	r2, [r3]
 2716 0022 22F00102 		bic	r2, r2, #1
 2717 0026 1A60     		str	r2, [r3]
 2718              	.L652:
 2719 0028 2046     		mov	r0, r4
 2720 002a FFF7FEFF 		bl	HAL_TIM_IC_MspDeInit
 2721 002e 0020     		movs	r0, #0
 2722 0030 84F84600 		strb	r0, [r4, #70]
 2723 0034 84F83C00 		strb	r0, [r4, #60]
 2724 0038 84F83E00 		strb	r0, [r4, #62]
 2725 003c 84F83F00 		strb	r0, [r4, #63]
 2726 0040 84F84000 		strb	r0, [r4, #64]
 2727 0044 84F84100 		strb	r0, [r4, #65]
 2728 0048 84F84200 		strb	r0, [r4, #66]
 2729 004c 84F84300 		strb	r0, [r4, #67]
 2730 0050 84F84400 		strb	r0, [r4, #68]
 2731 0054 84F84500 		strb	r0, [r4, #69]
 2732 0058 84F83D00 		strb	r0, [r4, #61]
 2733 005c 10BD     		pop	{r4, pc}
 2735 005e 00BF     		.section	.text.HAL_TIM_IC_Start,"ax",%progbits
 2736              		.align	1
 2737              		.p2align 2,,3
 2738              		.global	HAL_TIM_IC_Start
 2739              		.syntax unified
 2740              		.thumb
 2741              		.thumb_func
 2743              	HAL_TIM_IC_Start:
 2744              		@ args = 0, pretend = 0, frame = 0
 2745              		@ frame_needed = 0, uses_anonymous_args = 0
 2746              		@ link register save eliminated.
 2747 0000 0346     		mov	r3, r0
 2748 0002 59B9     		cbnz	r1, .L655
ARM GAS  /tmp/cc58c9Ir.s 			page 48


 2749 0004 90F83EC0 		ldrb	ip, [r0, #62]	@ zero_extendqisi2
 2750 0008 90F84220 		ldrb	r2, [r0, #66]	@ zero_extendqisi2
 2751 000c BCF1010F 		cmp	ip, #1
 2752 0010 5FFA8CF0 		uxtb	r0, ip
 2753 0014 D2B2     		uxtb	r2, r2
 2754 0016 17D0     		beq	.L682
 2755              	.L670:
 2756 0018 0120     		movs	r0, #1
 2757              	.L656:
 2758 001a 7047     		bx	lr
 2759              	.L655:
 2760 001c 0429     		cmp	r1, #4
 2761 001e 4ED0     		beq	.L683
 2762 0020 0829     		cmp	r1, #8
 2763 0022 5ED0     		beq	.L684
 2764 0024 90F841C0 		ldrb	ip, [r0, #65]	@ zero_extendqisi2
 2765 0028 90F84520 		ldrb	r2, [r0, #69]	@ zero_extendqisi2
 2766 002c BCF1010F 		cmp	ip, #1
 2767 0030 5FFA8CF0 		uxtb	r0, ip
 2768 0034 D2B2     		uxtb	r2, r2
 2769 0036 EFD1     		bne	.L670
 2770 0038 012A     		cmp	r2, #1
 2771 003a EED1     		bne	.L656
 2772 003c 0222     		movs	r2, #2
 2773 003e 83F84120 		strb	r2, [r3, #65]
 2774 0042 83F84520 		strb	r2, [r3, #69]
 2775 0046 06E0     		b	.L663
 2776              	.L682:
 2777 0048 012A     		cmp	r2, #1
 2778 004a E6D1     		bne	.L656
 2779 004c 0222     		movs	r2, #2
 2780 004e 83F83E20 		strb	r2, [r3, #62]
 2781 0052 83F84220 		strb	r2, [r3, #66]
 2782              	.L663:
 2783 0056 1B68     		ldr	r3, [r3]
 2784 0058 01F01F01 		and	r1, r1, #31
 2785 005c 186A     		ldr	r0, [r3, #32]
 2786 005e 0122     		movs	r2, #1
 2787 0060 8A40     		lsls	r2, r2, r1
 2788 0062 20EA0200 		bic	r0, r0, r2
 2789 0066 1862     		str	r0, [r3, #32]
 2790 0068 186A     		ldr	r0, [r3, #32]
 2791 006a 2749     		ldr	r1, .L685
 2792 006c 0243     		orrs	r2, r2, r0
 2793 006e 8B42     		cmp	r3, r1
 2794 0070 1A62     		str	r2, [r3, #32]
 2795 0072 19D0     		beq	.L664
 2796 0074 B3F1804F 		cmp	r3, #1073741824
 2797 0078 16D0     		beq	.L664
 2798 007a 244A     		ldr	r2, .L685+4
 2799 007c 9342     		cmp	r3, r2
 2800 007e 13D0     		beq	.L664
 2801 0080 02F58062 		add	r2, r2, #1024
 2802 0084 9342     		cmp	r3, r2
 2803 0086 0FD0     		beq	.L664
 2804 0088 02F58062 		add	r2, r2, #1024
 2805 008c 9342     		cmp	r3, r2
ARM GAS  /tmp/cc58c9Ir.s 			page 49


 2806 008e 0BD0     		beq	.L664
 2807 0090 02F57842 		add	r2, r2, #63488
 2808 0094 9342     		cmp	r3, r2
 2809 0096 07D0     		beq	.L664
 2810 0098 02F57052 		add	r2, r2, #15360
 2811 009c 9342     		cmp	r3, r2
 2812 009e 03D0     		beq	.L664
 2813 00a0 A2F59432 		sub	r2, r2, #75776
 2814 00a4 9342     		cmp	r3, r2
 2815 00a6 04D1     		bne	.L681
 2816              	.L664:
 2817 00a8 9A68     		ldr	r2, [r3, #8]
 2818 00aa 02F00702 		and	r2, r2, #7
 2819 00ae 062A     		cmp	r2, #6
 2820 00b0 03D0     		beq	.L666
 2821              	.L681:
 2822 00b2 1A68     		ldr	r2, [r3]
 2823 00b4 42F00102 		orr	r2, r2, #1
 2824 00b8 1A60     		str	r2, [r3]
 2825              	.L666:
 2826 00ba 0020     		movs	r0, #0
 2827 00bc 7047     		bx	lr
 2828              	.L683:
 2829 00be 90F83FC0 		ldrb	ip, [r0, #63]	@ zero_extendqisi2
 2830 00c2 90F84320 		ldrb	r2, [r0, #67]	@ zero_extendqisi2
 2831 00c6 BCF1010F 		cmp	ip, #1
 2832 00ca 5FFA8CF0 		uxtb	r0, ip
 2833 00ce D2B2     		uxtb	r2, r2
 2834 00d0 A2D1     		bne	.L670
 2835 00d2 012A     		cmp	r2, #1
 2836 00d4 A1D1     		bne	.L656
 2837 00d6 0222     		movs	r2, #2
 2838 00d8 83F83F20 		strb	r2, [r3, #63]
 2839 00dc 83F84320 		strb	r2, [r3, #67]
 2840 00e0 B9E7     		b	.L663
 2841              	.L684:
 2842 00e2 90F840C0 		ldrb	ip, [r0, #64]	@ zero_extendqisi2
 2843 00e6 90F84420 		ldrb	r2, [r0, #68]	@ zero_extendqisi2
 2844 00ea BCF1010F 		cmp	ip, #1
 2845 00ee 5FFA8CF0 		uxtb	r0, ip
 2846 00f2 D2B2     		uxtb	r2, r2
 2847 00f4 90D1     		bne	.L670
 2848 00f6 012A     		cmp	r2, #1
 2849 00f8 8FD1     		bne	.L656
 2850 00fa 0222     		movs	r2, #2
 2851 00fc 83F84020 		strb	r2, [r3, #64]
 2852 0100 83F84420 		strb	r2, [r3, #68]
 2853 0104 A7E7     		b	.L663
 2854              	.L686:
 2855 0106 00BF     		.align	2
 2856              	.L685:
 2857 0108 00000140 		.word	1073807360
 2858 010c 00040040 		.word	1073742848
 2860              		.section	.text.HAL_TIM_IC_Stop,"ax",%progbits
 2861              		.align	1
 2862              		.p2align 2,,3
 2863              		.global	HAL_TIM_IC_Stop
ARM GAS  /tmp/cc58c9Ir.s 			page 50


 2864              		.syntax unified
 2865              		.thumb
 2866              		.thumb_func
 2868              	HAL_TIM_IC_Stop:
 2869              		@ args = 0, pretend = 0, frame = 0
 2870              		@ frame_needed = 0, uses_anonymous_args = 0
 2871              		@ link register save eliminated.
 2872 0000 0368     		ldr	r3, [r0]
 2873 0002 10B4     		push	{r4}
 2874 0004 1A6A     		ldr	r2, [r3, #32]
 2875 0006 01F01F04 		and	r4, r1, #31
 2876 000a 4FF0010C 		mov	ip, #1
 2877 000e 0CFA04FC 		lsl	ip, ip, r4
 2878 0012 22EA0C02 		bic	r2, r2, ip
 2879 0016 1A62     		str	r2, [r3, #32]
 2880 0018 1A6A     		ldr	r2, [r3, #32]
 2881 001a 1A62     		str	r2, [r3, #32]
 2882 001c 1C6A     		ldr	r4, [r3, #32]
 2883 001e 41F21112 		movw	r2, #4369
 2884 0022 1442     		tst	r4, r2
 2885 0024 04D1     		bne	.L688
 2886 0026 1C6A     		ldr	r4, [r3, #32]
 2887 0028 40F24442 		movw	r2, #1092
 2888 002c 1442     		tst	r4, r2
 2889 002e 19D0     		beq	.L694
 2890              	.L688:
 2891 0030 0123     		movs	r3, #1
 2892 0032 39B9     		cbnz	r1, .L689
 2893 0034 80F83E30 		strb	r3, [r0, #62]
 2894 0038 80F84230 		strb	r3, [r0, #66]
 2895 003c 5DF8044B 		ldr	r4, [sp], #4
 2896 0040 0020     		movs	r0, #0
 2897 0042 7047     		bx	lr
 2898              	.L689:
 2899 0044 0429     		cmp	r1, #4
 2900 0046 12D0     		beq	.L695
 2901 0048 0829     		cmp	r1, #8
 2902 004a 0BBF     		itete	eq
 2903 004c 80F84030 		strbeq	r3, [r0, #64]
 2904 0050 80F84130 		strbne	r3, [r0, #65]
 2905 0054 80F84430 		strbeq	r3, [r0, #68]
 2906 0058 80F84530 		strbne	r3, [r0, #69]
 2907 005c 5DF8044B 		ldr	r4, [sp], #4
 2908 0060 0020     		movs	r0, #0
 2909 0062 7047     		bx	lr
 2910              	.L694:
 2911 0064 1A68     		ldr	r2, [r3]
 2912 0066 22F00102 		bic	r2, r2, #1
 2913 006a 1A60     		str	r2, [r3]
 2914 006c E0E7     		b	.L688
 2915              	.L695:
 2916 006e 80F83F30 		strb	r3, [r0, #63]
 2917 0072 80F84330 		strb	r3, [r0, #67]
 2918 0076 5DF8044B 		ldr	r4, [sp], #4
 2919 007a 0020     		movs	r0, #0
 2920 007c 7047     		bx	lr
 2922 007e 00BF     		.section	.text.HAL_TIM_IC_Start_IT,"ax",%progbits
ARM GAS  /tmp/cc58c9Ir.s 			page 51


 2923              		.align	1
 2924              		.p2align 2,,3
 2925              		.global	HAL_TIM_IC_Start_IT
 2926              		.syntax unified
 2927              		.thumb
 2928              		.thumb_func
 2930              	HAL_TIM_IC_Start_IT:
 2931              		@ args = 0, pretend = 0, frame = 0
 2932              		@ frame_needed = 0, uses_anonymous_args = 0
 2933              		@ link register save eliminated.
 2934 0000 41B9     		cbnz	r1, .L697
 2935 0002 90F83E20 		ldrb	r2, [r0, #62]	@ zero_extendqisi2
 2936 0006 90F84230 		ldrb	r3, [r0, #66]	@ zero_extendqisi2
 2937 000a 012A     		cmp	r2, #1
 2938 000c DBB2     		uxtb	r3, r3
 2939 000e 1BD0     		beq	.L718
 2940              	.L698:
 2941 0010 0120     		movs	r0, #1
 2942 0012 7047     		bx	lr
 2943              	.L697:
 2944 0014 0429     		cmp	r1, #4
 2945 0016 54D0     		beq	.L719
 2946 0018 0829     		cmp	r1, #8
 2947 001a 66D0     		beq	.L720
 2948 001c 90F84120 		ldrb	r2, [r0, #65]	@ zero_extendqisi2
 2949 0020 90F84530 		ldrb	r3, [r0, #69]	@ zero_extendqisi2
 2950 0024 012A     		cmp	r2, #1
 2951 0026 DBB2     		uxtb	r3, r3
 2952 0028 F2D1     		bne	.L698
 2953 002a 012B     		cmp	r3, #1
 2954 002c F0D1     		bne	.L698
 2955 002e 0223     		movs	r3, #2
 2956 0030 0C29     		cmp	r1, #12
 2957 0032 80F84130 		strb	r3, [r0, #65]
 2958 0036 80F84530 		strb	r3, [r0, #69]
 2959 003a E9D1     		bne	.L698
 2960 003c 0368     		ldr	r3, [r0]
 2961 003e DA68     		ldr	r2, [r3, #12]
 2962 0040 42F01002 		orr	r2, r2, #16
 2963 0044 DA60     		str	r2, [r3, #12]
 2964 0046 0BE0     		b	.L705
 2965              	.L718:
 2966 0048 012B     		cmp	r3, #1
 2967 004a E1D1     		bne	.L698
 2968 004c 0222     		movs	r2, #2
 2969 004e 0368     		ldr	r3, [r0]
 2970 0050 80F83E20 		strb	r2, [r0, #62]
 2971 0054 80F84220 		strb	r2, [r0, #66]
 2972 0058 DA68     		ldr	r2, [r3, #12]
 2973 005a 42F00202 		orr	r2, r2, #2
 2974 005e DA60     		str	r2, [r3, #12]
 2975              	.L705:
 2976 0060 186A     		ldr	r0, [r3, #32]
 2977 0062 0122     		movs	r2, #1
 2978 0064 8A40     		lsls	r2, r2, r1
 2979 0066 20EA0200 		bic	r0, r0, r2
 2980 006a 1862     		str	r0, [r3, #32]
ARM GAS  /tmp/cc58c9Ir.s 			page 52


 2981 006c 186A     		ldr	r0, [r3, #32]
 2982 006e 2949     		ldr	r1, .L721
 2983 0070 0243     		orrs	r2, r2, r0
 2984 0072 8B42     		cmp	r3, r1
 2985 0074 1A62     		str	r2, [r3, #32]
 2986 0076 19D0     		beq	.L706
 2987 0078 B3F1804F 		cmp	r3, #1073741824
 2988 007c 16D0     		beq	.L706
 2989 007e 264A     		ldr	r2, .L721+4
 2990 0080 9342     		cmp	r3, r2
 2991 0082 13D0     		beq	.L706
 2992 0084 02F58062 		add	r2, r2, #1024
 2993 0088 9342     		cmp	r3, r2
 2994 008a 0FD0     		beq	.L706
 2995 008c 02F58062 		add	r2, r2, #1024
 2996 0090 9342     		cmp	r3, r2
 2997 0092 0BD0     		beq	.L706
 2998 0094 02F57842 		add	r2, r2, #63488
 2999 0098 9342     		cmp	r3, r2
 3000 009a 07D0     		beq	.L706
 3001 009c 02F57052 		add	r2, r2, #15360
 3002 00a0 9342     		cmp	r3, r2
 3003 00a2 03D0     		beq	.L706
 3004 00a4 A2F59432 		sub	r2, r2, #75776
 3005 00a8 9342     		cmp	r3, r2
 3006 00aa 04D1     		bne	.L707
 3007              	.L706:
 3008 00ac 9A68     		ldr	r2, [r3, #8]
 3009 00ae 02F00702 		and	r2, r2, #7
 3010 00b2 062A     		cmp	r2, #6
 3011 00b4 03D0     		beq	.L710
 3012              	.L707:
 3013 00b6 1A68     		ldr	r2, [r3]
 3014 00b8 42F00102 		orr	r2, r2, #1
 3015 00bc 1A60     		str	r2, [r3]
 3016              	.L710:
 3017 00be 0020     		movs	r0, #0
 3018 00c0 7047     		bx	lr
 3019              	.L719:
 3020 00c2 90F83F20 		ldrb	r2, [r0, #63]	@ zero_extendqisi2
 3021 00c6 90F84330 		ldrb	r3, [r0, #67]	@ zero_extendqisi2
 3022 00ca 012A     		cmp	r2, #1
 3023 00cc DBB2     		uxtb	r3, r3
 3024 00ce 9FD1     		bne	.L698
 3025 00d0 012B     		cmp	r3, #1
 3026 00d2 9DD1     		bne	.L698
 3027 00d4 0222     		movs	r2, #2
 3028 00d6 0368     		ldr	r3, [r0]
 3029 00d8 80F83F20 		strb	r2, [r0, #63]
 3030 00dc 80F84320 		strb	r2, [r0, #67]
 3031 00e0 DA68     		ldr	r2, [r3, #12]
 3032 00e2 42F00402 		orr	r2, r2, #4
 3033 00e6 DA60     		str	r2, [r3, #12]
 3034 00e8 BAE7     		b	.L705
 3035              	.L720:
 3036 00ea 90F84020 		ldrb	r2, [r0, #64]	@ zero_extendqisi2
 3037 00ee 90F84430 		ldrb	r3, [r0, #68]	@ zero_extendqisi2
ARM GAS  /tmp/cc58c9Ir.s 			page 53


 3038 00f2 012A     		cmp	r2, #1
 3039 00f4 DBB2     		uxtb	r3, r3
 3040 00f6 8BD1     		bne	.L698
 3041 00f8 012B     		cmp	r3, #1
 3042 00fa 89D1     		bne	.L698
 3043 00fc 0222     		movs	r2, #2
 3044 00fe 0368     		ldr	r3, [r0]
 3045 0100 80F84020 		strb	r2, [r0, #64]
 3046 0104 80F84420 		strb	r2, [r0, #68]
 3047 0108 DA68     		ldr	r2, [r3, #12]
 3048 010a 42F00802 		orr	r2, r2, #8
 3049 010e DA60     		str	r2, [r3, #12]
 3050 0110 A6E7     		b	.L705
 3051              	.L722:
 3052 0112 00BF     		.align	2
 3053              	.L721:
 3054 0114 00000140 		.word	1073807360
 3055 0118 00040040 		.word	1073742848
 3057              		.section	.text.HAL_TIM_IC_Stop_IT,"ax",%progbits
 3058              		.align	1
 3059              		.p2align 2,,3
 3060              		.global	HAL_TIM_IC_Stop_IT
 3061              		.syntax unified
 3062              		.thumb
 3063              		.thumb_func
 3065              	HAL_TIM_IC_Stop_IT:
 3066              		@ args = 0, pretend = 0, frame = 0
 3067              		@ frame_needed = 0, uses_anonymous_args = 0
 3068              		@ link register save eliminated.
 3069 0000 0C29     		cmp	r1, #12
 3070 0002 1DD8     		bhi	.L743
 3071 0004 01A3     		adr	r3, .L726
 3072 0006 53F821F0 		ldr	pc, [r3, r1, lsl #2]
 3073 000a 00BF     		.p2align 2
 3074              	.L726:
 3075 000c 03010000 		.word	.L729+1
 3076 0010 41000000 		.word	.L743+1
 3077 0014 41000000 		.word	.L743+1
 3078 0018 41000000 		.word	.L743+1
 3079 001c C3000000 		.word	.L728+1
 3080 0020 41000000 		.word	.L743+1
 3081 0024 41000000 		.word	.L743+1
 3082 0028 41000000 		.word	.L743+1
 3083 002c 85000000 		.word	.L727+1
 3084 0030 41000000 		.word	.L743+1
 3085 0034 41000000 		.word	.L743+1
 3086 0038 41000000 		.word	.L743+1
 3087 003c 45000000 		.word	.L725+1
 3088              		.p2align 1
 3089              	.L743:
 3090 0040 0120     		movs	r0, #1
 3091 0042 7047     		bx	lr
 3092              	.L725:
 3093 0044 0368     		ldr	r3, [r0]
 3094 0046 DA68     		ldr	r2, [r3, #12]
 3095 0048 22F01002 		bic	r2, r2, #16
 3096 004c DA60     		str	r2, [r3, #12]
ARM GAS  /tmp/cc58c9Ir.s 			page 54


 3097 004e 1A6A     		ldr	r2, [r3, #32]
 3098 0050 22F48052 		bic	r2, r2, #4096
 3099 0054 1A62     		str	r2, [r3, #32]
 3100 0056 1A6A     		ldr	r2, [r3, #32]
 3101 0058 1A62     		str	r2, [r3, #32]
 3102 005a 1A6A     		ldr	r2, [r3, #32]
 3103 005c 41F21111 		movw	r1, #4369
 3104 0060 0A42     		tst	r2, r1
 3105 0062 08D1     		bne	.L735
 3106 0064 196A     		ldr	r1, [r3, #32]
 3107 0066 40F24442 		movw	r2, #1092
 3108 006a 1142     		tst	r1, r2
 3109 006c 03D1     		bne	.L735
 3110 006e 1A68     		ldr	r2, [r3]
 3111 0070 22F00102 		bic	r2, r2, #1
 3112 0074 1A60     		str	r2, [r3]
 3113              	.L735:
 3114 0076 0123     		movs	r3, #1
 3115 0078 80F84130 		strb	r3, [r0, #65]
 3116 007c 80F84530 		strb	r3, [r0, #69]
 3117 0080 0020     		movs	r0, #0
 3118 0082 7047     		bx	lr
 3119              	.L727:
 3120 0084 0368     		ldr	r3, [r0]
 3121 0086 DA68     		ldr	r2, [r3, #12]
 3122 0088 22F00802 		bic	r2, r2, #8
 3123 008c DA60     		str	r2, [r3, #12]
 3124 008e 1A6A     		ldr	r2, [r3, #32]
 3125 0090 22F48072 		bic	r2, r2, #256
 3126 0094 1A62     		str	r2, [r3, #32]
 3127 0096 1A6A     		ldr	r2, [r3, #32]
 3128 0098 1A62     		str	r2, [r3, #32]
 3129 009a 1A6A     		ldr	r2, [r3, #32]
 3130 009c 41F21111 		movw	r1, #4369
 3131 00a0 0A42     		tst	r2, r1
 3132 00a2 08D1     		bne	.L737
 3133 00a4 196A     		ldr	r1, [r3, #32]
 3134 00a6 40F24442 		movw	r2, #1092
 3135 00aa 1142     		tst	r1, r2
 3136 00ac 03D1     		bne	.L737
 3137 00ae 1A68     		ldr	r2, [r3]
 3138 00b0 22F00102 		bic	r2, r2, #1
 3139 00b4 1A60     		str	r2, [r3]
 3140              	.L737:
 3141 00b6 0123     		movs	r3, #1
 3142 00b8 80F84030 		strb	r3, [r0, #64]
 3143 00bc 80F84430 		strb	r3, [r0, #68]
 3144 00c0 34E0     		b	.L731
 3145              	.L728:
 3146 00c2 0368     		ldr	r3, [r0]
 3147 00c4 DA68     		ldr	r2, [r3, #12]
 3148 00c6 22F00402 		bic	r2, r2, #4
 3149 00ca DA60     		str	r2, [r3, #12]
 3150 00cc 1A6A     		ldr	r2, [r3, #32]
 3151 00ce 22F01002 		bic	r2, r2, #16
 3152 00d2 1A62     		str	r2, [r3, #32]
 3153 00d4 1A6A     		ldr	r2, [r3, #32]
ARM GAS  /tmp/cc58c9Ir.s 			page 55


 3154 00d6 1A62     		str	r2, [r3, #32]
 3155 00d8 1A6A     		ldr	r2, [r3, #32]
 3156 00da 41F21111 		movw	r1, #4369
 3157 00de 0A42     		tst	r2, r1
 3158 00e0 08D1     		bne	.L736
 3159 00e2 196A     		ldr	r1, [r3, #32]
 3160 00e4 40F24442 		movw	r2, #1092
 3161 00e8 1142     		tst	r1, r2
 3162 00ea 03D1     		bne	.L736
 3163 00ec 1A68     		ldr	r2, [r3]
 3164 00ee 22F00102 		bic	r2, r2, #1
 3165 00f2 1A60     		str	r2, [r3]
 3166              	.L736:
 3167 00f4 0123     		movs	r3, #1
 3168 00f6 80F83F30 		strb	r3, [r0, #63]
 3169 00fa 80F84330 		strb	r3, [r0, #67]
 3170 00fe 0020     		movs	r0, #0
 3171 0100 7047     		bx	lr
 3172              	.L729:
 3173 0102 0368     		ldr	r3, [r0]
 3174 0104 DA68     		ldr	r2, [r3, #12]
 3175 0106 22F00202 		bic	r2, r2, #2
 3176 010a DA60     		str	r2, [r3, #12]
 3177 010c 1A6A     		ldr	r2, [r3, #32]
 3178 010e 22F00102 		bic	r2, r2, #1
 3179 0112 1A62     		str	r2, [r3, #32]
 3180 0114 1A6A     		ldr	r2, [r3, #32]
 3181 0116 1A62     		str	r2, [r3, #32]
 3182 0118 1A6A     		ldr	r2, [r3, #32]
 3183 011a 41F21111 		movw	r1, #4369
 3184 011e 0A42     		tst	r2, r1
 3185 0120 06D0     		beq	.L730
 3186              	.L738:
 3187 0122 0123     		movs	r3, #1
 3188 0124 80F83E30 		strb	r3, [r0, #62]
 3189 0128 80F84230 		strb	r3, [r0, #66]
 3190              	.L731:
 3191 012c 0020     		movs	r0, #0
 3192 012e 7047     		bx	lr
 3193              	.L730:
 3194 0130 196A     		ldr	r1, [r3, #32]
 3195 0132 40F24442 		movw	r2, #1092
 3196 0136 1142     		tst	r1, r2
 3197 0138 F3D1     		bne	.L738
 3198 013a 1A68     		ldr	r2, [r3]
 3199 013c 22F00102 		bic	r2, r2, #1
 3200 0140 1A60     		str	r2, [r3]
 3201 0142 EEE7     		b	.L738
 3203              		.section	.text.HAL_TIM_IC_Start_DMA,"ax",%progbits
 3204              		.align	1
 3205              		.p2align 2,,3
 3206              		.global	HAL_TIM_IC_Start_DMA
 3207              		.syntax unified
 3208              		.thumb
 3209              		.thumb_func
 3211              	HAL_TIM_IC_Start_DMA:
 3212              		@ args = 0, pretend = 0, frame = 0
ARM GAS  /tmp/cc58c9Ir.s 			page 56


 3213              		@ frame_needed = 0, uses_anonymous_args = 0
 3214 0000 38B5     		push	{r3, r4, r5, lr}
 3215 0002 0446     		mov	r4, r0
 3216 0004 0029     		cmp	r1, #0
 3217 0006 65D1     		bne	.L746
 3218 0008 90F83EC0 		ldrb	ip, [r0, #62]	@ zero_extendqisi2
 3219 000c 5FFA8CF0 		uxtb	r0, ip
 3220 0010 94F842C0 		ldrb	ip, [r4, #66]	@ zero_extendqisi2
 3221 0014 5FFA8CFC 		uxtb	ip, ip
 3222              	.L747:
 3223 0018 0228     		cmp	r0, #2
 3224 001a 58D0     		beq	.L750
 3225 001c BCF1020F 		cmp	ip, #2
 3226 0020 54D0     		beq	.L766
 3227 0022 0128     		cmp	r0, #1
 3228 0024 54D1     		bne	.L752
 3229 0026 BCF1010F 		cmp	ip, #1
 3230 002a 51D1     		bne	.L752
 3231 002c 002A     		cmp	r2, #0
 3232 002e 4FD0     		beq	.L752
 3233 0030 002B     		cmp	r3, #0
 3234 0032 4DD0     		beq	.L752
 3235 0034 2568     		ldr	r5, [r4]
 3236 0036 0029     		cmp	r1, #0
 3237 0038 6BD1     		bne	.L753
 3238 003a 0221     		movs	r1, #2
 3239 003c 84F83E10 		strb	r1, [r4, #62]
 3240 0040 84F84210 		strb	r1, [r4, #66]
 3241 0044 296A     		ldr	r1, [r5, #32]
 3242 0046 606A     		ldr	r0, [r4, #36]
 3243 0048 21F00101 		bic	r1, r1, #1
 3244 004c 2962     		str	r1, [r5, #32]
 3245 004e 296A     		ldr	r1, [r5, #32]
 3246 0050 41F00101 		orr	r1, r1, #1
 3247 0054 2962     		str	r1, [r5, #32]
 3248 0056 05F13401 		add	r1, r5, #52
 3249 005a 744D     		ldr	r5, .L788
 3250 005c C563     		str	r5, [r0, #60]
 3251 005e 744D     		ldr	r5, .L788+4
 3252 0060 0564     		str	r5, [r0, #64]
 3253 0062 744D     		ldr	r5, .L788+8
 3254 0064 C564     		str	r5, [r0, #76]
 3255 0066 FFF7FEFF 		bl	HAL_DMA_Start_IT
 3256 006a 8446     		mov	ip, r0
 3257 006c 80BB     		cbnz	r0, .L752
 3258 006e 2568     		ldr	r5, [r4]
 3259 0070 EB68     		ldr	r3, [r5, #12]
 3260 0072 43F40073 		orr	r3, r3, #512
 3261 0076 EB60     		str	r3, [r5, #12]
 3262              	.L759:
 3263 0078 6F4B     		ldr	r3, .L788+12
 3264 007a 9D42     		cmp	r5, r3
 3265 007c 00F0CD80 		beq	.L762
 3266 0080 B5F1804F 		cmp	r5, #1073741824
 3267 0084 00F0C980 		beq	.L762
 3268 0088 A3F57C43 		sub	r3, r3, #64512
 3269 008c 9D42     		cmp	r5, r3
ARM GAS  /tmp/cc58c9Ir.s 			page 57


 3270 008e 00F0C480 		beq	.L762
 3271 0092 03F58063 		add	r3, r3, #1024
 3272 0096 9D42     		cmp	r5, r3
 3273 0098 00F0BF80 		beq	.L762
 3274 009c 03F58063 		add	r3, r3, #1024
 3275 00a0 9D42     		cmp	r5, r3
 3276 00a2 00F0BA80 		beq	.L762
 3277 00a6 03F57843 		add	r3, r3, #63488
 3278 00aa 9D42     		cmp	r5, r3
 3279 00ac 00F0B580 		beq	.L762
 3280 00b0 03F57053 		add	r3, r3, #15360
 3281 00b4 9D42     		cmp	r5, r3
 3282 00b6 00F0B080 		beq	.L762
 3283 00ba A3F59433 		sub	r3, r3, #75776
 3284 00be 9D42     		cmp	r5, r3
 3285 00c0 00F0AB80 		beq	.L762
 3286              	.L763:
 3287 00c4 2B68     		ldr	r3, [r5]
 3288 00c6 43F00103 		orr	r3, r3, #1
 3289 00ca 2B60     		str	r3, [r5]
 3290              	.L766:
 3291 00cc 6046     		mov	r0, ip
 3292              	.L750:
 3293 00ce 38BD     		pop	{r3, r4, r5, pc}
 3294              	.L752:
 3295 00d0 0120     		movs	r0, #1
 3296 00d2 38BD     		pop	{r3, r4, r5, pc}
 3297              	.L746:
 3298 00d4 0429     		cmp	r1, #4
 3299 00d6 0AD0     		beq	.L784
 3300 00d8 0829     		cmp	r1, #8
 3301 00da 11D0     		beq	.L785
 3302 00dc 90F841C0 		ldrb	ip, [r0, #65]	@ zero_extendqisi2
 3303 00e0 5FFA8CF0 		uxtb	r0, ip
 3304 00e4 94F845C0 		ldrb	ip, [r4, #69]	@ zero_extendqisi2
 3305 00e8 5FFA8CFC 		uxtb	ip, ip
 3306 00ec 94E7     		b	.L747
 3307              	.L784:
 3308 00ee 90F83FC0 		ldrb	ip, [r0, #63]	@ zero_extendqisi2
 3309 00f2 5FFA8CF0 		uxtb	r0, ip
 3310 00f6 94F843C0 		ldrb	ip, [r4, #67]	@ zero_extendqisi2
 3311 00fa 5FFA8CFC 		uxtb	ip, ip
 3312 00fe 8BE7     		b	.L747
 3313              	.L785:
 3314 0100 90F840C0 		ldrb	ip, [r0, #64]	@ zero_extendqisi2
 3315 0104 5FFA8CF0 		uxtb	r0, ip
 3316 0108 94F844C0 		ldrb	ip, [r4, #68]	@ zero_extendqisi2
 3317 010c 5FFA8CFC 		uxtb	ip, ip
 3318 0110 82E7     		b	.L747
 3319              	.L753:
 3320 0112 0429     		cmp	r1, #4
 3321 0114 2AD0     		beq	.L786
 3322 0116 0829     		cmp	r1, #8
 3323 0118 5DD0     		beq	.L787
 3324 011a 0220     		movs	r0, #2
 3325 011c 84F84100 		strb	r0, [r4, #65]
 3326 0120 84F84500 		strb	r0, [r4, #69]
ARM GAS  /tmp/cc58c9Ir.s 			page 58


 3327 0124 286A     		ldr	r0, [r5, #32]
 3328 0126 01F01F0E 		and	lr, r1, #31
 3329 012a 0CFA0EFE 		lsl	lr, ip, lr
 3330 012e 20EA0E00 		bic	r0, r0, lr
 3331 0132 2862     		str	r0, [r5, #32]
 3332 0134 081F     		subs	r0, r1, #4
 3333 0136 296A     		ldr	r1, [r5, #32]
 3334 0138 41EA0E01 		orr	r1, r1, lr
 3335 013c 2962     		str	r1, [r5, #32]
 3336 013e 0828     		cmp	r0, #8
 3337 0140 9AD8     		bhi	.L759
 3338 0142 01A1     		adr	r1, .L761
 3339 0144 51F820F0 		ldr	pc, [r1, r0, lsl #2]
 3340              		.p2align 2
 3341              	.L761:
 3342 0148 87010000 		.word	.L756+1
 3343 014c 79000000 		.word	.L759+1
 3344 0150 79000000 		.word	.L759+1
 3345 0154 79000000 		.word	.L759+1
 3346 0158 F1010000 		.word	.L758+1
 3347 015c 79000000 		.word	.L759+1
 3348 0160 79000000 		.word	.L759+1
 3349 0164 79000000 		.word	.L759+1
 3350 0168 AF010000 		.word	.L760+1
 3351              		.p2align 1
 3352              	.L786:
 3353 016c 0221     		movs	r1, #2
 3354 016e 84F83F10 		strb	r1, [r4, #63]
 3355 0172 84F84310 		strb	r1, [r4, #67]
 3356 0176 296A     		ldr	r1, [r5, #32]
 3357 0178 21F01001 		bic	r1, r1, #16
 3358 017c 2962     		str	r1, [r5, #32]
 3359 017e 296A     		ldr	r1, [r5, #32]
 3360 0180 41F01001 		orr	r1, r1, #16
 3361 0184 2962     		str	r1, [r5, #32]
 3362              	.L756:
 3363 0186 A06A     		ldr	r0, [r4, #40]
 3364 0188 05F13801 		add	r1, r5, #56
 3365 018c 274D     		ldr	r5, .L788
 3366 018e C563     		str	r5, [r0, #60]
 3367 0190 274D     		ldr	r5, .L788+4
 3368 0192 0564     		str	r5, [r0, #64]
 3369 0194 274D     		ldr	r5, .L788+8
 3370 0196 C564     		str	r5, [r0, #76]
 3371 0198 FFF7FEFF 		bl	HAL_DMA_Start_IT
 3372 019c 8446     		mov	ip, r0
 3373 019e 0028     		cmp	r0, #0
 3374 01a0 96D1     		bne	.L752
 3375 01a2 2568     		ldr	r5, [r4]
 3376 01a4 EB68     		ldr	r3, [r5, #12]
 3377 01a6 43F48063 		orr	r3, r3, #1024
 3378 01aa EB60     		str	r3, [r5, #12]
 3379 01ac 64E7     		b	.L759
 3380              	.L760:
 3381 01ae 206B     		ldr	r0, [r4, #48]
 3382 01b0 05F14001 		add	r1, r5, #64
 3383 01b4 1D4D     		ldr	r5, .L788
ARM GAS  /tmp/cc58c9Ir.s 			page 59


 3384 01b6 C563     		str	r5, [r0, #60]
 3385 01b8 1D4D     		ldr	r5, .L788+4
 3386 01ba 0564     		str	r5, [r0, #64]
 3387 01bc 1D4D     		ldr	r5, .L788+8
 3388 01be C564     		str	r5, [r0, #76]
 3389 01c0 FFF7FEFF 		bl	HAL_DMA_Start_IT
 3390 01c4 8446     		mov	ip, r0
 3391 01c6 0028     		cmp	r0, #0
 3392 01c8 82D1     		bne	.L752
 3393 01ca 2568     		ldr	r5, [r4]
 3394 01cc EB68     		ldr	r3, [r5, #12]
 3395 01ce 43F48053 		orr	r3, r3, #4096
 3396 01d2 EB60     		str	r3, [r5, #12]
 3397 01d4 50E7     		b	.L759
 3398              	.L787:
 3399 01d6 0221     		movs	r1, #2
 3400 01d8 84F84010 		strb	r1, [r4, #64]
 3401 01dc 84F84410 		strb	r1, [r4, #68]
 3402 01e0 296A     		ldr	r1, [r5, #32]
 3403 01e2 21F48071 		bic	r1, r1, #256
 3404 01e6 2962     		str	r1, [r5, #32]
 3405 01e8 296A     		ldr	r1, [r5, #32]
 3406 01ea 41F48071 		orr	r1, r1, #256
 3407 01ee 2962     		str	r1, [r5, #32]
 3408              	.L758:
 3409 01f0 E06A     		ldr	r0, [r4, #44]
 3410 01f2 05F13C01 		add	r1, r5, #60
 3411 01f6 0D4D     		ldr	r5, .L788
 3412 01f8 C563     		str	r5, [r0, #60]
 3413 01fa 0D4D     		ldr	r5, .L788+4
 3414 01fc 0564     		str	r5, [r0, #64]
 3415 01fe 0D4D     		ldr	r5, .L788+8
 3416 0200 C564     		str	r5, [r0, #76]
 3417 0202 FFF7FEFF 		bl	HAL_DMA_Start_IT
 3418 0206 8446     		mov	ip, r0
 3419 0208 0028     		cmp	r0, #0
 3420 020a 7FF461AF 		bne	.L752
 3421 020e 2568     		ldr	r5, [r4]
 3422 0210 EB68     		ldr	r3, [r5, #12]
 3423 0212 43F40063 		orr	r3, r3, #2048
 3424 0216 EB60     		str	r3, [r5, #12]
 3425 0218 2EE7     		b	.L759
 3426              	.L762:
 3427 021a AB68     		ldr	r3, [r5, #8]
 3428 021c 03F00703 		and	r3, r3, #7
 3429 0220 062B     		cmp	r3, #6
 3430 0222 7FF44FAF 		bne	.L763
 3431 0226 6046     		mov	r0, ip
 3432 0228 51E7     		b	.L750
 3433              	.L789:
 3434 022a 00BF     		.align	2
 3435              	.L788:
 3436 022c 00000000 		.word	TIM_DMACaptureCplt
 3437 0230 00000000 		.word	TIM_DMACaptureHalfCplt
 3438 0234 00000000 		.word	TIM_DMAError
 3439 0238 00000140 		.word	1073807360
 3441              		.section	.text.HAL_TIM_IC_Stop_DMA,"ax",%progbits
ARM GAS  /tmp/cc58c9Ir.s 			page 60


 3442              		.align	1
 3443              		.p2align 2,,3
 3444              		.global	HAL_TIM_IC_Stop_DMA
 3445              		.syntax unified
 3446              		.thumb
 3447              		.thumb_func
 3449              	HAL_TIM_IC_Stop_DMA:
 3450              		@ args = 0, pretend = 0, frame = 0
 3451              		@ frame_needed = 0, uses_anonymous_args = 0
 3452 0000 38B5     		push	{r3, r4, r5, lr}
 3453 0002 0368     		ldr	r3, [r0]
 3454 0004 0446     		mov	r4, r0
 3455 0006 1A6A     		ldr	r2, [r3, #32]
 3456 0008 01F01F00 		and	r0, r1, #31
 3457 000c 0D46     		mov	r5, r1
 3458 000e 0121     		movs	r1, #1
 3459 0010 8140     		lsls	r1, r1, r0
 3460 0012 22EA0102 		bic	r2, r2, r1
 3461 0016 1A62     		str	r2, [r3, #32]
 3462 0018 1A6A     		ldr	r2, [r3, #32]
 3463 001a 1A62     		str	r2, [r3, #32]
 3464 001c 0C2D     		cmp	r5, #12
 3465 001e 1DD8     		bhi	.L810
 3466 0020 01A2     		adr	r2, .L793
 3467 0022 52F825F0 		ldr	pc, [r2, r5, lsl #2]
 3468 0026 00BF     		.p2align 2
 3469              	.L793:
 3470 0028 05010000 		.word	.L796+1
 3471 002c 5D000000 		.word	.L810+1
 3472 0030 5D000000 		.word	.L810+1
 3473 0034 5D000000 		.word	.L810+1
 3474 0038 CD000000 		.word	.L795+1
 3475 003c 5D000000 		.word	.L810+1
 3476 0040 5D000000 		.word	.L810+1
 3477 0044 5D000000 		.word	.L810+1
 3478 0048 91000000 		.word	.L794+1
 3479 004c 5D000000 		.word	.L810+1
 3480 0050 5D000000 		.word	.L810+1
 3481 0054 5D000000 		.word	.L810+1
 3482 0058 61000000 		.word	.L792+1
 3483              		.p2align 1
 3484              	.L810:
 3485 005c 0120     		movs	r0, #1
 3486 005e 38BD     		pop	{r3, r4, r5, pc}
 3487              	.L792:
 3488 0060 DA68     		ldr	r2, [r3, #12]
 3489 0062 206B     		ldr	r0, [r4, #48]
 3490 0064 22F48052 		bic	r2, r2, #4096
 3491 0068 DA60     		str	r2, [r3, #12]
 3492 006a FFF7FEFF 		bl	HAL_DMA_Abort_IT
 3493 006e 2368     		ldr	r3, [r4]
 3494 0070 196A     		ldr	r1, [r3, #32]
 3495 0072 41F21112 		movw	r2, #4369
 3496 0076 1142     		tst	r1, r2
 3497 0078 04D1     		bne	.L802
 3498 007a 196A     		ldr	r1, [r3, #32]
 3499 007c 40F24442 		movw	r2, #1092
ARM GAS  /tmp/cc58c9Ir.s 			page 61


 3500 0080 1142     		tst	r1, r2
 3501 0082 17D0     		beq	.L807
 3502              	.L802:
 3503 0084 0123     		movs	r3, #1
 3504 0086 84F84130 		strb	r3, [r4, #65]
 3505 008a 84F84530 		strb	r3, [r4, #69]
 3506 008e 54E0     		b	.L798
 3507              	.L794:
 3508 0090 DA68     		ldr	r2, [r3, #12]
 3509 0092 E06A     		ldr	r0, [r4, #44]
 3510 0094 22F40062 		bic	r2, r2, #2048
 3511 0098 DA60     		str	r2, [r3, #12]
 3512 009a FFF7FEFF 		bl	HAL_DMA_Abort_IT
 3513 009e 2368     		ldr	r3, [r4]
 3514 00a0 196A     		ldr	r1, [r3, #32]
 3515 00a2 41F21112 		movw	r2, #4369
 3516 00a6 1142     		tst	r1, r2
 3517 00a8 0AD1     		bne	.L803
 3518 00aa 196A     		ldr	r1, [r3, #32]
 3519 00ac 40F24442 		movw	r2, #1092
 3520 00b0 1142     		tst	r1, r2
 3521 00b2 05D1     		bne	.L803
 3522              	.L807:
 3523 00b4 1A68     		ldr	r2, [r3]
 3524 00b6 082D     		cmp	r5, #8
 3525 00b8 22F00102 		bic	r2, r2, #1
 3526 00bc 1A60     		str	r2, [r3]
 3527 00be E1D1     		bne	.L802
 3528              	.L803:
 3529 00c0 0123     		movs	r3, #1
 3530 00c2 84F84030 		strb	r3, [r4, #64]
 3531 00c6 84F84430 		strb	r3, [r4, #68]
 3532 00ca 36E0     		b	.L798
 3533              	.L795:
 3534 00cc DA68     		ldr	r2, [r3, #12]
 3535 00ce A06A     		ldr	r0, [r4, #40]
 3536 00d0 22F48062 		bic	r2, r2, #1024
 3537 00d4 DA60     		str	r2, [r3, #12]
 3538 00d6 FFF7FEFF 		bl	HAL_DMA_Abort_IT
 3539 00da 2368     		ldr	r3, [r4]
 3540 00dc 196A     		ldr	r1, [r3, #32]
 3541 00de 41F21112 		movw	r2, #4369
 3542 00e2 1142     		tst	r1, r2
 3543 00e4 08D1     		bne	.L809
 3544 00e6 196A     		ldr	r1, [r3, #32]
 3545 00e8 40F24442 		movw	r2, #1092
 3546 00ec 1142     		tst	r1, r2
 3547 00ee 03D1     		bne	.L809
 3548 00f0 1A68     		ldr	r2, [r3]
 3549 00f2 22F00102 		bic	r2, r2, #1
 3550 00f6 1A60     		str	r2, [r3]
 3551              	.L809:
 3552 00f8 0123     		movs	r3, #1
 3553 00fa 84F83F30 		strb	r3, [r4, #63]
 3554 00fe 84F84330 		strb	r3, [r4, #67]
 3555 0102 1AE0     		b	.L798
 3556              	.L796:
ARM GAS  /tmp/cc58c9Ir.s 			page 62


 3557 0104 DA68     		ldr	r2, [r3, #12]
 3558 0106 606A     		ldr	r0, [r4, #36]
 3559 0108 22F40072 		bic	r2, r2, #512
 3560 010c DA60     		str	r2, [r3, #12]
 3561 010e FFF7FEFF 		bl	HAL_DMA_Abort_IT
 3562 0112 2368     		ldr	r3, [r4]
 3563 0114 196A     		ldr	r1, [r3, #32]
 3564 0116 41F21112 		movw	r2, #4369
 3565 011a 1142     		tst	r1, r2
 3566 011c 08D1     		bne	.L805
 3567 011e 196A     		ldr	r1, [r3, #32]
 3568 0120 40F24442 		movw	r2, #1092
 3569 0124 1142     		tst	r1, r2
 3570 0126 03D1     		bne	.L805
 3571 0128 1A68     		ldr	r2, [r3]
 3572 012a 22F00102 		bic	r2, r2, #1
 3573 012e 1A60     		str	r2, [r3]
 3574              	.L805:
 3575 0130 0123     		movs	r3, #1
 3576 0132 84F83E30 		strb	r3, [r4, #62]
 3577 0136 84F84230 		strb	r3, [r4, #66]
 3578              	.L798:
 3579 013a 0020     		movs	r0, #0
 3580 013c 38BD     		pop	{r3, r4, r5, pc}
 3582 013e 00BF     		.section	.text.HAL_TIM_OnePulse_MspInit,"ax",%progbits
 3583              		.align	1
 3584              		.p2align 2,,3
 3585              		.weak	HAL_TIM_OnePulse_MspInit
 3586              		.syntax unified
 3587              		.thumb
 3588              		.thumb_func
 3590              	HAL_TIM_OnePulse_MspInit:
 3591              		@ args = 0, pretend = 0, frame = 0
 3592              		@ frame_needed = 0, uses_anonymous_args = 0
 3593              		@ link register save eliminated.
 3594 0000 7047     		bx	lr
 3596 0002 00BF     		.section	.text.HAL_TIM_OnePulse_Init,"ax",%progbits
 3597              		.align	1
 3598              		.p2align 2,,3
 3599              		.global	HAL_TIM_OnePulse_Init
 3600              		.syntax unified
 3601              		.thumb
 3602              		.thumb_func
 3604              	HAL_TIM_OnePulse_Init:
 3605              		@ args = 0, pretend = 0, frame = 0
 3606              		@ frame_needed = 0, uses_anonymous_args = 0
 3607 0000 0028     		cmp	r0, #0
 3608 0002 00F08E80 		beq	.L832
 3609 0006 38B5     		push	{r3, r4, r5, lr}
 3610 0008 90F83D30 		ldrb	r3, [r0, #61]	@ zero_extendqisi2
 3611 000c 0D46     		mov	r5, r1
 3612 000e 0446     		mov	r4, r0
 3613 0010 03F0FF02 		and	r2, r3, #255
 3614 0014 002B     		cmp	r3, #0
 3615 0016 7FD0     		beq	.L843
 3616              	.L819:
 3617 0018 2368     		ldr	r3, [r4]
ARM GAS  /tmp/cc58c9Ir.s 			page 63


 3618 001a 4349     		ldr	r1, .L844
 3619 001c 0222     		movs	r2, #2
 3620 001e 84F83D20 		strb	r2, [r4, #61]
 3621 0022 8B42     		cmp	r3, r1
 3622 0024 1A68     		ldr	r2, [r3]
 3623 0026 63D0     		beq	.L820
 3624 0028 B3F1804F 		cmp	r3, #1073741824
 3625 002c 30D0     		beq	.L821
 3626 002e A1F57C41 		sub	r1, r1, #64512
 3627 0032 8B42     		cmp	r3, r1
 3628 0034 2CD0     		beq	.L821
 3629 0036 01F58061 		add	r1, r1, #1024
 3630 003a 8B42     		cmp	r3, r1
 3631 003c 28D0     		beq	.L821
 3632 003e 01F58061 		add	r1, r1, #1024
 3633 0042 8B42     		cmp	r3, r1
 3634 0044 24D0     		beq	.L821
 3635 0046 01F57841 		add	r1, r1, #63488
 3636 004a 8B42     		cmp	r3, r1
 3637 004c 50D0     		beq	.L820
 3638 004e 3749     		ldr	r1, .L844+4
 3639 0050 8B42     		cmp	r3, r1
 3640 0052 21D0     		beq	.L827
 3641 0054 01F58061 		add	r1, r1, #1024
 3642 0058 8B42     		cmp	r3, r1
 3643 005a 1DD0     		beq	.L827
 3644 005c 01F58061 		add	r1, r1, #1024
 3645 0060 8B42     		cmp	r3, r1
 3646 0062 19D0     		beq	.L827
 3647 0064 A1F59831 		sub	r1, r1, #77824
 3648 0068 8B42     		cmp	r3, r1
 3649 006a 15D0     		beq	.L827
 3650 006c 01F58061 		add	r1, r1, #1024
 3651 0070 8B42     		cmp	r3, r1
 3652 0072 11D0     		beq	.L827
 3653 0074 01F58061 		add	r1, r1, #1024
 3654 0078 8B42     		cmp	r3, r1
 3655 007a 0DD0     		beq	.L827
 3656 007c A069     		ldr	r0, [r4, #24]
 3657 007e 6168     		ldr	r1, [r4, #4]
 3658 0080 22F08002 		bic	r2, r2, #128
 3659 0084 0243     		orrs	r2, r2, r0
 3660 0086 E068     		ldr	r0, [r4, #12]
 3661 0088 1A60     		str	r2, [r3]
 3662 008a D862     		str	r0, [r3, #44]
 3663 008c 9962     		str	r1, [r3, #40]
 3664 008e 10E0     		b	.L831
 3665              	.L821:
 3666 0090 A168     		ldr	r1, [r4, #8]
 3667 0092 22F07002 		bic	r2, r2, #112
 3668 0096 0A43     		orrs	r2, r2, r1
 3669              	.L827:
 3670 0098 2169     		ldr	r1, [r4, #16]
 3671 009a 22F44072 		bic	r2, r2, #768
 3672 009e 0A43     		orrs	r2, r2, r1
 3673 00a0 A169     		ldr	r1, [r4, #24]
 3674 00a2 22F08002 		bic	r2, r2, #128
ARM GAS  /tmp/cc58c9Ir.s 			page 64


 3675 00a6 0A43     		orrs	r2, r2, r1
 3676 00a8 E168     		ldr	r1, [r4, #12]
 3677 00aa 1A60     		str	r2, [r3]
 3678 00ac 6268     		ldr	r2, [r4, #4]
 3679 00ae D962     		str	r1, [r3, #44]
 3680 00b0 9A62     		str	r2, [r3, #40]
 3681              	.L831:
 3682 00b2 0122     		movs	r2, #1
 3683 00b4 5A61     		str	r2, [r3, #20]
 3684 00b6 1A69     		ldr	r2, [r3, #16]
 3685 00b8 D207     		lsls	r2, r2, #31
 3686 00ba 03D5     		bpl	.L830
 3687 00bc 1A69     		ldr	r2, [r3, #16]
 3688 00be 22F00102 		bic	r2, r2, #1
 3689 00c2 1A61     		str	r2, [r3, #16]
 3690              	.L830:
 3691 00c4 1968     		ldr	r1, [r3]
 3692 00c6 21F00801 		bic	r1, r1, #8
 3693 00ca 1960     		str	r1, [r3]
 3694 00cc 1968     		ldr	r1, [r3]
 3695 00ce 0122     		movs	r2, #1
 3696 00d0 2943     		orrs	r1, r1, r5
 3697 00d2 1960     		str	r1, [r3]
 3698 00d4 84F84620 		strb	r2, [r4, #70]
 3699 00d8 84F83E20 		strb	r2, [r4, #62]
 3700 00dc 84F83F20 		strb	r2, [r4, #63]
 3701 00e0 84F84220 		strb	r2, [r4, #66]
 3702 00e4 84F84320 		strb	r2, [r4, #67]
 3703 00e8 84F83D20 		strb	r2, [r4, #61]
 3704 00ec 0020     		movs	r0, #0
 3705 00ee 38BD     		pop	{r3, r4, r5, pc}
 3706              	.L820:
 3707 00f0 A168     		ldr	r1, [r4, #8]
 3708 00f2 22F07002 		bic	r2, r2, #112
 3709 00f6 0A43     		orrs	r2, r2, r1
 3710 00f8 2169     		ldr	r1, [r4, #16]
 3711 00fa 22F44072 		bic	r2, r2, #768
 3712 00fe 0A43     		orrs	r2, r2, r1
 3713 0100 A169     		ldr	r1, [r4, #24]
 3714 0102 22F08002 		bic	r2, r2, #128
 3715 0106 0A43     		orrs	r2, r2, r1
 3716 0108 1A60     		str	r2, [r3]
 3717 010a E268     		ldr	r2, [r4, #12]
 3718 010c DA62     		str	r2, [r3, #44]
 3719 010e 6268     		ldr	r2, [r4, #4]
 3720 0110 9A62     		str	r2, [r3, #40]
 3721 0112 6269     		ldr	r2, [r4, #20]
 3722 0114 1A63     		str	r2, [r3, #48]
 3723 0116 CCE7     		b	.L831
 3724              	.L843:
 3725 0118 80F83C20 		strb	r2, [r0, #60]
 3726 011c FFF7FEFF 		bl	HAL_TIM_OnePulse_MspInit
 3727 0120 7AE7     		b	.L819
 3728              	.L832:
 3729 0122 0120     		movs	r0, #1
 3730 0124 7047     		bx	lr
 3731              	.L845:
ARM GAS  /tmp/cc58c9Ir.s 			page 65


 3732 0126 00BF     		.align	2
 3733              	.L844:
 3734 0128 00000140 		.word	1073807360
 3735 012c 00400140 		.word	1073823744
 3737              		.section	.text.HAL_TIM_OnePulse_MspDeInit,"ax",%progbits
 3738              		.align	1
 3739              		.p2align 2,,3
 3740              		.weak	HAL_TIM_OnePulse_MspDeInit
 3741              		.syntax unified
 3742              		.thumb
 3743              		.thumb_func
 3745              	HAL_TIM_OnePulse_MspDeInit:
 3746              		@ args = 0, pretend = 0, frame = 0
 3747              		@ frame_needed = 0, uses_anonymous_args = 0
 3748              		@ link register save eliminated.
 3749 0000 7047     		bx	lr
 3751 0002 00BF     		.section	.text.HAL_TIM_OnePulse_DeInit,"ax",%progbits
 3752              		.align	1
 3753              		.p2align 2,,3
 3754              		.global	HAL_TIM_OnePulse_DeInit
 3755              		.syntax unified
 3756              		.thumb
 3757              		.thumb_func
 3759              	HAL_TIM_OnePulse_DeInit:
 3760              		@ args = 0, pretend = 0, frame = 0
 3761              		@ frame_needed = 0, uses_anonymous_args = 0
 3762 0000 0222     		movs	r2, #2
 3763 0002 0368     		ldr	r3, [r0]
 3764 0004 10B5     		push	{r4, lr}
 3765 0006 80F83D20 		strb	r2, [r0, #61]
 3766 000a 196A     		ldr	r1, [r3, #32]
 3767 000c 41F21112 		movw	r2, #4369
 3768 0010 1142     		tst	r1, r2
 3769 0012 0446     		mov	r4, r0
 3770 0014 08D1     		bne	.L848
 3771 0016 196A     		ldr	r1, [r3, #32]
 3772 0018 40F24442 		movw	r2, #1092
 3773 001c 1142     		tst	r1, r2
 3774 001e 03D1     		bne	.L848
 3775 0020 1A68     		ldr	r2, [r3]
 3776 0022 22F00102 		bic	r2, r2, #1
 3777 0026 1A60     		str	r2, [r3]
 3778              	.L848:
 3779 0028 2046     		mov	r0, r4
 3780 002a FFF7FEFF 		bl	HAL_TIM_OnePulse_MspDeInit
 3781 002e 0020     		movs	r0, #0
 3782 0030 84F84600 		strb	r0, [r4, #70]
 3783 0034 84F83C00 		strb	r0, [r4, #60]
 3784 0038 84F83E00 		strb	r0, [r4, #62]
 3785 003c 84F83F00 		strb	r0, [r4, #63]
 3786 0040 84F84200 		strb	r0, [r4, #66]
 3787 0044 84F84300 		strb	r0, [r4, #67]
 3788 0048 84F83D00 		strb	r0, [r4, #61]
 3789 004c 10BD     		pop	{r4, pc}
 3791 004e 00BF     		.section	.text.HAL_TIM_OnePulse_Start,"ax",%progbits
 3792              		.align	1
 3793              		.p2align 2,,3
ARM GAS  /tmp/cc58c9Ir.s 			page 66


 3794              		.global	HAL_TIM_OnePulse_Start
 3795              		.syntax unified
 3796              		.thumb
 3797              		.thumb_func
 3799              	HAL_TIM_OnePulse_Start:
 3800              		@ args = 0, pretend = 0, frame = 0
 3801              		@ frame_needed = 0, uses_anonymous_args = 0
 3802 0000 00B5     		push	{lr}
 3803 0002 90F83EE0 		ldrb	lr, [r0, #62]	@ zero_extendqisi2
 3804 0006 90F83F20 		ldrb	r2, [r0, #63]	@ zero_extendqisi2
 3805 000a 90F84210 		ldrb	r1, [r0, #66]	@ zero_extendqisi2
 3806 000e 90F843C0 		ldrb	ip, [r0, #67]	@ zero_extendqisi2
 3807 0012 BEF1010F 		cmp	lr, #1
 3808 0016 07D1     		bne	.L854
 3809 0018 D2B2     		uxtb	r2, r2
 3810 001a 012A     		cmp	r2, #1
 3811 001c 0346     		mov	r3, r0
 3812 001e 5FFA8EF0 		uxtb	r0, lr
 3813 0022 04D0     		beq	.L858
 3814              	.L851:
 3815 0024 5DF804FB 		ldr	pc, [sp], #4
 3816              	.L854:
 3817 0028 0120     		movs	r0, #1
 3818 002a 5DF804FB 		ldr	pc, [sp], #4
 3819              	.L858:
 3820 002e C9B2     		uxtb	r1, r1
 3821 0030 0129     		cmp	r1, #1
 3822 0032 F7D1     		bne	.L851
 3823 0034 5FFA8CFC 		uxtb	ip, ip
 3824 0038 BCF1010F 		cmp	ip, #1
 3825 003c F2D1     		bne	.L851
 3826 003e 1A68     		ldr	r2, [r3]
 3827 0040 0221     		movs	r1, #2
 3828 0042 83F83E10 		strb	r1, [r3, #62]
 3829 0046 83F83F10 		strb	r1, [r3, #63]
 3830 004a 83F84210 		strb	r1, [r3, #66]
 3831 004e 83F84310 		strb	r1, [r3, #67]
 3832 0052 136A     		ldr	r3, [r2, #32]
 3833 0054 0D49     		ldr	r1, .L859
 3834 0056 23F00103 		bic	r3, r3, #1
 3835 005a 1362     		str	r3, [r2, #32]
 3836 005c 136A     		ldr	r3, [r2, #32]
 3837 005e 43F00103 		orr	r3, r3, #1
 3838 0062 1362     		str	r3, [r2, #32]
 3839 0064 136A     		ldr	r3, [r2, #32]
 3840 0066 23F01003 		bic	r3, r3, #16
 3841 006a 1362     		str	r3, [r2, #32]
 3842 006c 136A     		ldr	r3, [r2, #32]
 3843 006e 8A42     		cmp	r2, r1
 3844 0070 43F01003 		orr	r3, r3, #16
 3845 0074 1362     		str	r3, [r2, #32]
 3846 0076 04D0     		beq	.L852
 3847 0078 054B     		ldr	r3, .L859+4
 3848 007a 9A42     		cmp	r2, r3
 3849 007c 01D0     		beq	.L852
 3850              	.L853:
 3851 007e 0020     		movs	r0, #0
ARM GAS  /tmp/cc58c9Ir.s 			page 67


 3852 0080 D0E7     		b	.L851
 3853              	.L852:
 3854 0082 536C     		ldr	r3, [r2, #68]
 3855 0084 43F40043 		orr	r3, r3, #32768
 3856 0088 5364     		str	r3, [r2, #68]
 3857 008a F8E7     		b	.L853
 3858              	.L860:
 3859              		.align	2
 3860              	.L859:
 3861 008c 00000140 		.word	1073807360
 3862 0090 00040140 		.word	1073808384
 3864              		.section	.text.HAL_TIM_OnePulse_Stop,"ax",%progbits
 3865              		.align	1
 3866              		.p2align 2,,3
 3867              		.global	HAL_TIM_OnePulse_Stop
 3868              		.syntax unified
 3869              		.thumb
 3870              		.thumb_func
 3872              	HAL_TIM_OnePulse_Stop:
 3873              		@ args = 0, pretend = 0, frame = 0
 3874              		@ frame_needed = 0, uses_anonymous_args = 0
 3875              		@ link register save eliminated.
 3876 0000 0246     		mov	r2, r0
 3877 0002 1D48     		ldr	r0, .L865
 3878 0004 1368     		ldr	r3, [r2]
 3879 0006 196A     		ldr	r1, [r3, #32]
 3880 0008 21F00101 		bic	r1, r1, #1
 3881 000c 1962     		str	r1, [r3, #32]
 3882 000e 196A     		ldr	r1, [r3, #32]
 3883 0010 1962     		str	r1, [r3, #32]
 3884 0012 196A     		ldr	r1, [r3, #32]
 3885 0014 21F01001 		bic	r1, r1, #16
 3886 0018 1962     		str	r1, [r3, #32]
 3887 001a 196A     		ldr	r1, [r3, #32]
 3888 001c 1962     		str	r1, [r3, #32]
 3889 001e 8342     		cmp	r3, r0
 3890 0020 1BD0     		beq	.L862
 3891 0022 1649     		ldr	r1, .L865+4
 3892 0024 8B42     		cmp	r3, r1
 3893 0026 18D0     		beq	.L862
 3894              	.L863:
 3895 0028 186A     		ldr	r0, [r3, #32]
 3896 002a 41F21111 		movw	r1, #4369
 3897 002e 0842     		tst	r0, r1
 3898 0030 08D1     		bne	.L864
 3899 0032 186A     		ldr	r0, [r3, #32]
 3900 0034 40F24441 		movw	r1, #1092
 3901 0038 0842     		tst	r0, r1
 3902 003a 03D1     		bne	.L864
 3903 003c 1968     		ldr	r1, [r3]
 3904 003e 21F00101 		bic	r1, r1, #1
 3905 0042 1960     		str	r1, [r3]
 3906              	.L864:
 3907 0044 0123     		movs	r3, #1
 3908 0046 82F83E30 		strb	r3, [r2, #62]
 3909 004a 0020     		movs	r0, #0
 3910 004c 82F83F30 		strb	r3, [r2, #63]
ARM GAS  /tmp/cc58c9Ir.s 			page 68


 3911 0050 82F84230 		strb	r3, [r2, #66]
 3912 0054 82F84330 		strb	r3, [r2, #67]
 3913 0058 7047     		bx	lr
 3914              	.L862:
 3915 005a 186A     		ldr	r0, [r3, #32]
 3916 005c 41F21111 		movw	r1, #4369
 3917 0060 0842     		tst	r0, r1
 3918 0062 E1D1     		bne	.L863
 3919 0064 186A     		ldr	r0, [r3, #32]
 3920 0066 40F24441 		movw	r1, #1092
 3921 006a 0842     		tst	r0, r1
 3922 006c DCD1     		bne	.L863
 3923 006e 596C     		ldr	r1, [r3, #68]
 3924 0070 21F40041 		bic	r1, r1, #32768
 3925 0074 5964     		str	r1, [r3, #68]
 3926 0076 D7E7     		b	.L863
 3927              	.L866:
 3928              		.align	2
 3929              	.L865:
 3930 0078 00000140 		.word	1073807360
 3931 007c 00040140 		.word	1073808384
 3933              		.section	.text.HAL_TIM_OnePulse_Start_IT,"ax",%progbits
 3934              		.align	1
 3935              		.p2align 2,,3
 3936              		.global	HAL_TIM_OnePulse_Start_IT
 3937              		.syntax unified
 3938              		.thumb
 3939              		.thumb_func
 3941              	HAL_TIM_OnePulse_Start_IT:
 3942              		@ args = 0, pretend = 0, frame = 0
 3943              		@ frame_needed = 0, uses_anonymous_args = 0
 3944 0000 00B5     		push	{lr}
 3945 0002 90F83EE0 		ldrb	lr, [r0, #62]	@ zero_extendqisi2
 3946 0006 90F83F20 		ldrb	r2, [r0, #63]	@ zero_extendqisi2
 3947 000a 90F84210 		ldrb	r1, [r0, #66]	@ zero_extendqisi2
 3948 000e 90F843C0 		ldrb	ip, [r0, #67]	@ zero_extendqisi2
 3949 0012 BEF1010F 		cmp	lr, #1
 3950 0016 07D1     		bne	.L871
 3951 0018 D2B2     		uxtb	r2, r2
 3952 001a 012A     		cmp	r2, #1
 3953 001c 0346     		mov	r3, r0
 3954 001e 5FFA8EF0 		uxtb	r0, lr
 3955 0022 04D0     		beq	.L875
 3956              	.L868:
 3957 0024 5DF804FB 		ldr	pc, [sp], #4
 3958              	.L871:
 3959 0028 0120     		movs	r0, #1
 3960 002a 5DF804FB 		ldr	pc, [sp], #4
 3961              	.L875:
 3962 002e C9B2     		uxtb	r1, r1
 3963 0030 0129     		cmp	r1, #1
 3964 0032 F7D1     		bne	.L868
 3965 0034 5FFA8CFC 		uxtb	ip, ip
 3966 0038 BCF1010F 		cmp	ip, #1
 3967 003c F2D1     		bne	.L868
 3968 003e 1A68     		ldr	r2, [r3]
 3969 0040 0221     		movs	r1, #2
ARM GAS  /tmp/cc58c9Ir.s 			page 69


 3970 0042 83F83E10 		strb	r1, [r3, #62]
 3971 0046 83F83F10 		strb	r1, [r3, #63]
 3972 004a 83F84210 		strb	r1, [r3, #66]
 3973 004e 83F84310 		strb	r1, [r3, #67]
 3974 0052 D368     		ldr	r3, [r2, #12]
 3975 0054 1149     		ldr	r1, .L876
 3976 0056 43F00203 		orr	r3, r3, #2
 3977 005a D360     		str	r3, [r2, #12]
 3978 005c D368     		ldr	r3, [r2, #12]
 3979 005e 43F00403 		orr	r3, r3, #4
 3980 0062 D360     		str	r3, [r2, #12]
 3981 0064 136A     		ldr	r3, [r2, #32]
 3982 0066 23F00103 		bic	r3, r3, #1
 3983 006a 1362     		str	r3, [r2, #32]
 3984 006c 136A     		ldr	r3, [r2, #32]
 3985 006e 43F00103 		orr	r3, r3, #1
 3986 0072 1362     		str	r3, [r2, #32]
 3987 0074 136A     		ldr	r3, [r2, #32]
 3988 0076 23F01003 		bic	r3, r3, #16
 3989 007a 1362     		str	r3, [r2, #32]
 3990 007c 136A     		ldr	r3, [r2, #32]
 3991 007e 8A42     		cmp	r2, r1
 3992 0080 43F01003 		orr	r3, r3, #16
 3993 0084 1362     		str	r3, [r2, #32]
 3994 0086 04D0     		beq	.L869
 3995 0088 054B     		ldr	r3, .L876+4
 3996 008a 9A42     		cmp	r2, r3
 3997 008c 01D0     		beq	.L869
 3998              	.L870:
 3999 008e 0020     		movs	r0, #0
 4000 0090 C8E7     		b	.L868
 4001              	.L869:
 4002 0092 536C     		ldr	r3, [r2, #68]
 4003 0094 43F40043 		orr	r3, r3, #32768
 4004 0098 5364     		str	r3, [r2, #68]
 4005 009a F8E7     		b	.L870
 4006              	.L877:
 4007              		.align	2
 4008              	.L876:
 4009 009c 00000140 		.word	1073807360
 4010 00a0 00040140 		.word	1073808384
 4012              		.section	.text.HAL_TIM_OnePulse_Stop_IT,"ax",%progbits
 4013              		.align	1
 4014              		.p2align 2,,3
 4015              		.global	HAL_TIM_OnePulse_Stop_IT
 4016              		.syntax unified
 4017              		.thumb
 4018              		.thumb_func
 4020              	HAL_TIM_OnePulse_Stop_IT:
 4021              		@ args = 0, pretend = 0, frame = 0
 4022              		@ frame_needed = 0, uses_anonymous_args = 0
 4023              		@ link register save eliminated.
 4024 0000 0246     		mov	r2, r0
 4025 0002 2148     		ldr	r0, .L882
 4026 0004 1368     		ldr	r3, [r2]
 4027 0006 D968     		ldr	r1, [r3, #12]
 4028 0008 21F00201 		bic	r1, r1, #2
ARM GAS  /tmp/cc58c9Ir.s 			page 70


 4029 000c D960     		str	r1, [r3, #12]
 4030 000e D968     		ldr	r1, [r3, #12]
 4031 0010 21F00401 		bic	r1, r1, #4
 4032 0014 D960     		str	r1, [r3, #12]
 4033 0016 196A     		ldr	r1, [r3, #32]
 4034 0018 21F00101 		bic	r1, r1, #1
 4035 001c 1962     		str	r1, [r3, #32]
 4036 001e 196A     		ldr	r1, [r3, #32]
 4037 0020 1962     		str	r1, [r3, #32]
 4038 0022 196A     		ldr	r1, [r3, #32]
 4039 0024 21F01001 		bic	r1, r1, #16
 4040 0028 1962     		str	r1, [r3, #32]
 4041 002a 196A     		ldr	r1, [r3, #32]
 4042 002c 1962     		str	r1, [r3, #32]
 4043 002e 8342     		cmp	r3, r0
 4044 0030 1BD0     		beq	.L879
 4045 0032 1649     		ldr	r1, .L882+4
 4046 0034 8B42     		cmp	r3, r1
 4047 0036 18D0     		beq	.L879
 4048              	.L880:
 4049 0038 186A     		ldr	r0, [r3, #32]
 4050 003a 41F21111 		movw	r1, #4369
 4051 003e 0842     		tst	r0, r1
 4052 0040 08D1     		bne	.L881
 4053 0042 186A     		ldr	r0, [r3, #32]
 4054 0044 40F24441 		movw	r1, #1092
 4055 0048 0842     		tst	r0, r1
 4056 004a 03D1     		bne	.L881
 4057 004c 1968     		ldr	r1, [r3]
 4058 004e 21F00101 		bic	r1, r1, #1
 4059 0052 1960     		str	r1, [r3]
 4060              	.L881:
 4061 0054 0123     		movs	r3, #1
 4062 0056 82F83E30 		strb	r3, [r2, #62]
 4063 005a 0020     		movs	r0, #0
 4064 005c 82F83F30 		strb	r3, [r2, #63]
 4065 0060 82F84230 		strb	r3, [r2, #66]
 4066 0064 82F84330 		strb	r3, [r2, #67]
 4067 0068 7047     		bx	lr
 4068              	.L879:
 4069 006a 186A     		ldr	r0, [r3, #32]
 4070 006c 41F21111 		movw	r1, #4369
 4071 0070 0842     		tst	r0, r1
 4072 0072 E1D1     		bne	.L880
 4073 0074 186A     		ldr	r0, [r3, #32]
 4074 0076 40F24441 		movw	r1, #1092
 4075 007a 0842     		tst	r0, r1
 4076 007c DCD1     		bne	.L880
 4077 007e 596C     		ldr	r1, [r3, #68]
 4078 0080 21F40041 		bic	r1, r1, #32768
 4079 0084 5964     		str	r1, [r3, #68]
 4080 0086 D7E7     		b	.L880
 4081              	.L883:
 4082              		.align	2
 4083              	.L882:
 4084 0088 00000140 		.word	1073807360
 4085 008c 00040140 		.word	1073808384
ARM GAS  /tmp/cc58c9Ir.s 			page 71


 4087              		.section	.text.HAL_TIM_Encoder_MspInit,"ax",%progbits
 4088              		.align	1
 4089              		.p2align 2,,3
 4090              		.weak	HAL_TIM_Encoder_MspInit
 4091              		.syntax unified
 4092              		.thumb
 4093              		.thumb_func
 4095              	HAL_TIM_Encoder_MspInit:
 4096              		@ args = 0, pretend = 0, frame = 0
 4097              		@ frame_needed = 0, uses_anonymous_args = 0
 4098              		@ link register save eliminated.
 4099 0000 7047     		bx	lr
 4101 0002 00BF     		.section	.text.HAL_TIM_Encoder_Init,"ax",%progbits
 4102              		.align	1
 4103              		.p2align 2,,3
 4104              		.global	HAL_TIM_Encoder_Init
 4105              		.syntax unified
 4106              		.thumb
 4107              		.thumb_func
 4109              	HAL_TIM_Encoder_Init:
 4110              		@ args = 0, pretend = 0, frame = 0
 4111              		@ frame_needed = 0, uses_anonymous_args = 0
 4112 0000 0028     		cmp	r0, #0
 4113 0002 00F0B680 		beq	.L900
 4114 0006 F8B5     		push	{r3, r4, r5, r6, r7, lr}
 4115 0008 90F83D30 		ldrb	r3, [r0, #61]	@ zero_extendqisi2
 4116 000c 0D46     		mov	r5, r1
 4117 000e 0446     		mov	r4, r0
 4118 0010 03F0FF02 		and	r2, r3, #255
 4119 0014 002B     		cmp	r3, #0
 4120 0016 00F0A780 		beq	.L911
 4121              	.L887:
 4122 001a 2368     		ldr	r3, [r4]
 4123 001c 5649     		ldr	r1, .L912
 4124 001e 0222     		movs	r2, #2
 4125 0020 84F83D20 		strb	r2, [r4, #61]
 4126 0024 9A68     		ldr	r2, [r3, #8]
 4127 0026 22F48042 		bic	r2, r2, #16384
 4128 002a 22F00702 		bic	r2, r2, #7
 4129 002e 9A60     		str	r2, [r3, #8]
 4130 0030 8B42     		cmp	r3, r1
 4131 0032 1A68     		ldr	r2, [r3]
 4132 0034 00F08480 		beq	.L888
 4133 0038 B3F1804F 		cmp	r3, #1073741824
 4134 003c 30D0     		beq	.L889
 4135 003e A1F57C41 		sub	r1, r1, #64512
 4136 0042 8B42     		cmp	r3, r1
 4137 0044 2CD0     		beq	.L889
 4138 0046 01F58061 		add	r1, r1, #1024
 4139 004a 8B42     		cmp	r3, r1
 4140 004c 28D0     		beq	.L889
 4141 004e 01F58061 		add	r1, r1, #1024
 4142 0052 8B42     		cmp	r3, r1
 4143 0054 24D0     		beq	.L889
 4144 0056 01F57841 		add	r1, r1, #63488
 4145 005a 8B42     		cmp	r3, r1
 4146 005c 70D0     		beq	.L888
ARM GAS  /tmp/cc58c9Ir.s 			page 72


 4147 005e 4749     		ldr	r1, .L912+4
 4148 0060 8B42     		cmp	r3, r1
 4149 0062 21D0     		beq	.L895
 4150 0064 01F58061 		add	r1, r1, #1024
 4151 0068 8B42     		cmp	r3, r1
 4152 006a 1DD0     		beq	.L895
 4153 006c 01F58061 		add	r1, r1, #1024
 4154 0070 8B42     		cmp	r3, r1
 4155 0072 19D0     		beq	.L895
 4156 0074 A1F59831 		sub	r1, r1, #77824
 4157 0078 8B42     		cmp	r3, r1
 4158 007a 15D0     		beq	.L895
 4159 007c 01F58061 		add	r1, r1, #1024
 4160 0080 8B42     		cmp	r3, r1
 4161 0082 11D0     		beq	.L895
 4162 0084 01F58061 		add	r1, r1, #1024
 4163 0088 8B42     		cmp	r3, r1
 4164 008a 0DD0     		beq	.L895
 4165 008c A069     		ldr	r0, [r4, #24]
 4166 008e 6168     		ldr	r1, [r4, #4]
 4167 0090 22F08002 		bic	r2, r2, #128
 4168 0094 0243     		orrs	r2, r2, r0
 4169 0096 E068     		ldr	r0, [r4, #12]
 4170 0098 1A60     		str	r2, [r3]
 4171 009a D862     		str	r0, [r3, #44]
 4172 009c 9962     		str	r1, [r3, #40]
 4173 009e 10E0     		b	.L899
 4174              	.L889:
 4175 00a0 A168     		ldr	r1, [r4, #8]
 4176 00a2 22F07002 		bic	r2, r2, #112
 4177 00a6 0A43     		orrs	r2, r2, r1
 4178              	.L895:
 4179 00a8 2169     		ldr	r1, [r4, #16]
 4180 00aa 22F44072 		bic	r2, r2, #768
 4181 00ae 0A43     		orrs	r2, r2, r1
 4182 00b0 A169     		ldr	r1, [r4, #24]
 4183 00b2 22F08002 		bic	r2, r2, #128
 4184 00b6 0A43     		orrs	r2, r2, r1
 4185 00b8 E168     		ldr	r1, [r4, #12]
 4186 00ba 1A60     		str	r2, [r3]
 4187 00bc 6268     		ldr	r2, [r4, #4]
 4188 00be D962     		str	r1, [r3, #44]
 4189 00c0 9A62     		str	r2, [r3, #40]
 4190              	.L899:
 4191 00c2 0122     		movs	r2, #1
 4192 00c4 5A61     		str	r2, [r3, #20]
 4193 00c6 1A69     		ldr	r2, [r3, #16]
 4194 00c8 D207     		lsls	r2, r2, #31
 4195 00ca 03D5     		bpl	.L898
 4196 00cc 1A69     		ldr	r2, [r3, #16]
 4197 00ce 22F00102 		bic	r2, r2, #1
 4198 00d2 1A61     		str	r2, [r3, #16]
 4199              	.L898:
 4200 00d4 9E68     		ldr	r6, [r3, #8]
 4201 00d6 9969     		ldr	r1, [r3, #24]
 4202 00d8 A869     		ldr	r0, [r5, #24]
 4203 00da AA68     		ldr	r2, [r5, #8]
ARM GAS  /tmp/cc58c9Ir.s 			page 73


 4204 00dc 2F6A     		ldr	r7, [r5, #32]
 4205 00de 21F44071 		bic	r1, r1, #768
 4206 00e2 21F00301 		bic	r1, r1, #3
 4207 00e6 42EA0022 		orr	r2, r2, r0, lsl #8
 4208 00ea 0A43     		orrs	r2, r2, r1
 4209 00ec 22F47C41 		bic	r1, r2, #64512
 4210 00f0 2A69     		ldr	r2, [r5, #16]
 4211 00f2 E869     		ldr	r0, [r5, #28]
 4212 00f4 1201     		lsls	r2, r2, #4
 4213 00f6 42EA0022 		orr	r2, r2, r0, lsl #8
 4214 00fa E868     		ldr	r0, [r5, #12]
 4215 00fc 0243     		orrs	r2, r2, r0
 4216 00fe 21F0FC01 		bic	r1, r1, #252
 4217 0102 42EA0732 		orr	r2, r2, r7, lsl #12
 4218 0106 186A     		ldr	r0, [r3, #32]
 4219 0108 6F69     		ldr	r7, [r5, #20]
 4220 010a 0A43     		orrs	r2, r2, r1
 4221 010c 6968     		ldr	r1, [r5, #4]
 4222 010e 20F0AA00 		bic	r0, r0, #170
 4223 0112 41EA0711 		orr	r1, r1, r7, lsl #4
 4224 0116 0843     		orrs	r0, r0, r1
 4225 0118 2968     		ldr	r1, [r5]
 4226 011a 0E43     		orrs	r6, r6, r1
 4227 011c 0121     		movs	r1, #1
 4228 011e 9E60     		str	r6, [r3, #8]
 4229 0120 9A61     		str	r2, [r3, #24]
 4230 0122 1862     		str	r0, [r3, #32]
 4231 0124 84F84610 		strb	r1, [r4, #70]
 4232 0128 84F83E10 		strb	r1, [r4, #62]
 4233 012c 84F83F10 		strb	r1, [r4, #63]
 4234 0130 84F84210 		strb	r1, [r4, #66]
 4235 0134 84F84310 		strb	r1, [r4, #67]
 4236 0138 84F83D10 		strb	r1, [r4, #61]
 4237 013c 0020     		movs	r0, #0
 4238 013e F8BD     		pop	{r3, r4, r5, r6, r7, pc}
 4239              	.L888:
 4240 0140 A168     		ldr	r1, [r4, #8]
 4241 0142 22F07002 		bic	r2, r2, #112
 4242 0146 0A43     		orrs	r2, r2, r1
 4243 0148 2169     		ldr	r1, [r4, #16]
 4244 014a 22F44072 		bic	r2, r2, #768
 4245 014e 0A43     		orrs	r2, r2, r1
 4246 0150 A169     		ldr	r1, [r4, #24]
 4247 0152 22F08002 		bic	r2, r2, #128
 4248 0156 0A43     		orrs	r2, r2, r1
 4249 0158 1A60     		str	r2, [r3]
 4250 015a E268     		ldr	r2, [r4, #12]
 4251 015c DA62     		str	r2, [r3, #44]
 4252 015e 6268     		ldr	r2, [r4, #4]
 4253 0160 9A62     		str	r2, [r3, #40]
 4254 0162 6269     		ldr	r2, [r4, #20]
 4255 0164 1A63     		str	r2, [r3, #48]
 4256 0166 ACE7     		b	.L899
 4257              	.L911:
 4258 0168 80F83C20 		strb	r2, [r0, #60]
 4259 016c FFF7FEFF 		bl	HAL_TIM_Encoder_MspInit
 4260 0170 53E7     		b	.L887
ARM GAS  /tmp/cc58c9Ir.s 			page 74


 4261              	.L900:
 4262 0172 0120     		movs	r0, #1
 4263 0174 7047     		bx	lr
 4264              	.L913:
 4265 0176 00BF     		.align	2
 4266              	.L912:
 4267 0178 00000140 		.word	1073807360
 4268 017c 00400140 		.word	1073823744
 4270              		.section	.text.HAL_TIM_Encoder_MspDeInit,"ax",%progbits
 4271              		.align	1
 4272              		.p2align 2,,3
 4273              		.weak	HAL_TIM_Encoder_MspDeInit
 4274              		.syntax unified
 4275              		.thumb
 4276              		.thumb_func
 4278              	HAL_TIM_Encoder_MspDeInit:
 4279              		@ args = 0, pretend = 0, frame = 0
 4280              		@ frame_needed = 0, uses_anonymous_args = 0
 4281              		@ link register save eliminated.
 4282 0000 7047     		bx	lr
 4284 0002 00BF     		.section	.text.HAL_TIM_Encoder_DeInit,"ax",%progbits
 4285              		.align	1
 4286              		.p2align 2,,3
 4287              		.global	HAL_TIM_Encoder_DeInit
 4288              		.syntax unified
 4289              		.thumb
 4290              		.thumb_func
 4292              	HAL_TIM_Encoder_DeInit:
 4293              		@ args = 0, pretend = 0, frame = 0
 4294              		@ frame_needed = 0, uses_anonymous_args = 0
 4295 0000 0222     		movs	r2, #2
 4296 0002 0368     		ldr	r3, [r0]
 4297 0004 10B5     		push	{r4, lr}
 4298 0006 80F83D20 		strb	r2, [r0, #61]
 4299 000a 196A     		ldr	r1, [r3, #32]
 4300 000c 41F21112 		movw	r2, #4369
 4301 0010 1142     		tst	r1, r2
 4302 0012 0446     		mov	r4, r0
 4303 0014 08D1     		bne	.L916
 4304 0016 196A     		ldr	r1, [r3, #32]
 4305 0018 40F24442 		movw	r2, #1092
 4306 001c 1142     		tst	r1, r2
 4307 001e 03D1     		bne	.L916
 4308 0020 1A68     		ldr	r2, [r3]
 4309 0022 22F00102 		bic	r2, r2, #1
 4310 0026 1A60     		str	r2, [r3]
 4311              	.L916:
 4312 0028 2046     		mov	r0, r4
 4313 002a FFF7FEFF 		bl	HAL_TIM_Encoder_MspDeInit
 4314 002e 0020     		movs	r0, #0
 4315 0030 84F84600 		strb	r0, [r4, #70]
 4316 0034 84F83C00 		strb	r0, [r4, #60]
 4317 0038 84F83E00 		strb	r0, [r4, #62]
 4318 003c 84F83F00 		strb	r0, [r4, #63]
 4319 0040 84F84200 		strb	r0, [r4, #66]
 4320 0044 84F84300 		strb	r0, [r4, #67]
 4321 0048 84F83D00 		strb	r0, [r4, #61]
ARM GAS  /tmp/cc58c9Ir.s 			page 75


 4322 004c 10BD     		pop	{r4, pc}
 4324 004e 00BF     		.section	.text.HAL_TIM_Encoder_Start,"ax",%progbits
 4325              		.align	1
 4326              		.p2align 2,,3
 4327              		.global	HAL_TIM_Encoder_Start
 4328              		.syntax unified
 4329              		.thumb
 4330              		.thumb_func
 4332              	HAL_TIM_Encoder_Start:
 4333              		@ args = 0, pretend = 0, frame = 0
 4334              		@ frame_needed = 0, uses_anonymous_args = 0
 4335 0000 00B5     		push	{lr}
 4336 0002 0346     		mov	r3, r0
 4337 0004 90F83E00 		ldrb	r0, [r0, #62]	@ zero_extendqisi2
 4338 0008 93F83F20 		ldrb	r2, [r3, #63]	@ zero_extendqisi2
 4339 000c 93F842C0 		ldrb	ip, [r3, #66]	@ zero_extendqisi2
 4340 0010 93F843E0 		ldrb	lr, [r3, #67]	@ zero_extendqisi2
 4341 0014 C0B2     		uxtb	r0, r0
 4342 0016 5FFA8CFC 		uxtb	ip, ip
 4343 001a 21B9     		cbnz	r1, .L919
 4344 001c 0128     		cmp	r0, #1
 4345 001e 24D0     		beq	.L931
 4346              	.L926:
 4347 0020 0120     		movs	r0, #1
 4348              	.L920:
 4349 0022 5DF804FB 		ldr	pc, [sp], #4
 4350              	.L919:
 4351 0026 0429     		cmp	r1, #4
 4352 0028 D2B2     		uxtb	r2, r2
 4353 002a 5FFA8EFE 		uxtb	lr, lr
 4354 002e 34D0     		beq	.L932
 4355 0030 0128     		cmp	r0, #1
 4356 0032 F5D1     		bne	.L926
 4357 0034 012A     		cmp	r2, #1
 4358 0036 F4D1     		bne	.L920
 4359 0038 BCF1010F 		cmp	ip, #1
 4360 003c F1D1     		bne	.L920
 4361 003e BEF1010F 		cmp	lr, #1
 4362 0042 EED1     		bne	.L920
 4363 0044 1A68     		ldr	r2, [r3]
 4364 0046 0221     		movs	r1, #2
 4365 0048 83F83E10 		strb	r1, [r3, #62]
 4366 004c 83F83F10 		strb	r1, [r3, #63]
 4367 0050 83F84210 		strb	r1, [r3, #66]
 4368 0054 83F84310 		strb	r1, [r3, #67]
 4369 0058 136A     		ldr	r3, [r2, #32]
 4370 005a 23F00103 		bic	r3, r3, #1
 4371 005e 1362     		str	r3, [r2, #32]
 4372 0060 136A     		ldr	r3, [r2, #32]
 4373 0062 43F00103 		orr	r3, r3, #1
 4374 0066 1362     		str	r3, [r2, #32]
 4375 0068 22E0     		b	.L930
 4376              	.L931:
 4377 006a BCF1010F 		cmp	ip, #1
 4378 006e D8D1     		bne	.L920
 4379 0070 1A68     		ldr	r2, [r3]
 4380 0072 0221     		movs	r1, #2
ARM GAS  /tmp/cc58c9Ir.s 			page 76


 4381 0074 83F83E10 		strb	r1, [r3, #62]
 4382 0078 83F84210 		strb	r1, [r3, #66]
 4383 007c 136A     		ldr	r3, [r2, #32]
 4384 007e 23F00103 		bic	r3, r3, #1
 4385 0082 1362     		str	r3, [r2, #32]
 4386 0084 136A     		ldr	r3, [r2, #32]
 4387 0086 43F00103 		orr	r3, r3, #1
 4388 008a 1362     		str	r3, [r2, #32]
 4389              	.L921:
 4390 008c 1368     		ldr	r3, [r2]
 4391 008e 43F00103 		orr	r3, r3, #1
 4392 0092 0020     		movs	r0, #0
 4393 0094 1360     		str	r3, [r2]
 4394 0096 5DF804FB 		ldr	pc, [sp], #4
 4395              	.L932:
 4396 009a 012A     		cmp	r2, #1
 4397 009c C0D1     		bne	.L926
 4398 009e BEF1010F 		cmp	lr, #1
 4399 00a2 BDD1     		bne	.L926
 4400 00a4 0221     		movs	r1, #2
 4401 00a6 1A68     		ldr	r2, [r3]
 4402 00a8 83F83F10 		strb	r1, [r3, #63]
 4403 00ac 83F84310 		strb	r1, [r3, #67]
 4404              	.L930:
 4405 00b0 136A     		ldr	r3, [r2, #32]
 4406 00b2 23F01003 		bic	r3, r3, #16
 4407 00b6 1362     		str	r3, [r2, #32]
 4408 00b8 136A     		ldr	r3, [r2, #32]
 4409 00ba 43F01003 		orr	r3, r3, #16
 4410 00be 1362     		str	r3, [r2, #32]
 4411 00c0 E4E7     		b	.L921
 4413 00c2 00BF     		.section	.text.HAL_TIM_Encoder_Stop,"ax",%progbits
 4414              		.align	1
 4415              		.p2align 2,,3
 4416              		.global	HAL_TIM_Encoder_Stop
 4417              		.syntax unified
 4418              		.thumb
 4419              		.thumb_func
 4421              	HAL_TIM_Encoder_Stop:
 4422              		@ args = 0, pretend = 0, frame = 0
 4423              		@ frame_needed = 0, uses_anonymous_args = 0
 4424              		@ link register save eliminated.
 4425 0000 0368     		ldr	r3, [r0]
 4426 0002 0029     		cmp	r1, #0
 4427 0004 41D0     		beq	.L934
 4428 0006 0429     		cmp	r1, #4
 4429 0008 24D0     		beq	.L935
 4430 000a 1A6A     		ldr	r2, [r3, #32]
 4431 000c 22F00102 		bic	r2, r2, #1
 4432 0010 1A62     		str	r2, [r3, #32]
 4433 0012 1A6A     		ldr	r2, [r3, #32]
 4434 0014 1A62     		str	r2, [r3, #32]
 4435 0016 1A6A     		ldr	r2, [r3, #32]
 4436 0018 22F01002 		bic	r2, r2, #16
 4437 001c 1A62     		str	r2, [r3, #32]
 4438 001e 1A6A     		ldr	r2, [r3, #32]
 4439 0020 1A62     		str	r2, [r3, #32]
ARM GAS  /tmp/cc58c9Ir.s 			page 77


 4440 0022 1A6A     		ldr	r2, [r3, #32]
 4441 0024 41F21111 		movw	r1, #4369
 4442 0028 0A42     		tst	r2, r1
 4443 002a 08D1     		bne	.L942
 4444 002c 196A     		ldr	r1, [r3, #32]
 4445 002e 40F24442 		movw	r2, #1092
 4446 0032 1142     		tst	r1, r2
 4447 0034 03D1     		bne	.L942
 4448 0036 1A68     		ldr	r2, [r3]
 4449 0038 22F00102 		bic	r2, r2, #1
 4450 003c 1A60     		str	r2, [r3]
 4451              	.L942:
 4452 003e 0123     		movs	r3, #1
 4453 0040 80F83E30 		strb	r3, [r0, #62]
 4454 0044 80F83F30 		strb	r3, [r0, #63]
 4455 0048 80F84230 		strb	r3, [r0, #66]
 4456 004c 80F84330 		strb	r3, [r0, #67]
 4457 0050 0020     		movs	r0, #0
 4458 0052 7047     		bx	lr
 4459              	.L935:
 4460 0054 1A6A     		ldr	r2, [r3, #32]
 4461 0056 22F01002 		bic	r2, r2, #16
 4462 005a 1A62     		str	r2, [r3, #32]
 4463 005c 1A6A     		ldr	r2, [r3, #32]
 4464 005e 1A62     		str	r2, [r3, #32]
 4465 0060 1A6A     		ldr	r2, [r3, #32]
 4466 0062 41F21111 		movw	r1, #4369
 4467 0066 0A42     		tst	r2, r1
 4468 0068 08D1     		bne	.L940
 4469 006a 196A     		ldr	r1, [r3, #32]
 4470 006c 40F24442 		movw	r2, #1092
 4471 0070 1142     		tst	r1, r2
 4472 0072 03D1     		bne	.L940
 4473 0074 1A68     		ldr	r2, [r3]
 4474 0076 22F00102 		bic	r2, r2, #1
 4475 007a 1A60     		str	r2, [r3]
 4476              	.L940:
 4477 007c 0123     		movs	r3, #1
 4478 007e 80F83F30 		strb	r3, [r0, #63]
 4479 0082 80F84330 		strb	r3, [r0, #67]
 4480 0086 0020     		movs	r0, #0
 4481 0088 7047     		bx	lr
 4482              	.L934:
 4483 008a 1A6A     		ldr	r2, [r3, #32]
 4484 008c 22F00102 		bic	r2, r2, #1
 4485 0090 1A62     		str	r2, [r3, #32]
 4486 0092 1A6A     		ldr	r2, [r3, #32]
 4487 0094 1A62     		str	r2, [r3, #32]
 4488 0096 1A6A     		ldr	r2, [r3, #32]
 4489 0098 41F21111 		movw	r1, #4369
 4490 009c 0A42     		tst	r2, r1
 4491 009e 08D1     		bne	.L938
 4492 00a0 196A     		ldr	r1, [r3, #32]
 4493 00a2 40F24442 		movw	r2, #1092
 4494 00a6 1142     		tst	r1, r2
 4495 00a8 03D1     		bne	.L938
 4496 00aa 1A68     		ldr	r2, [r3]
ARM GAS  /tmp/cc58c9Ir.s 			page 78


 4497 00ac 22F00102 		bic	r2, r2, #1
 4498 00b0 1A60     		str	r2, [r3]
 4499              	.L938:
 4500 00b2 0123     		movs	r3, #1
 4501 00b4 80F83E30 		strb	r3, [r0, #62]
 4502 00b8 80F84230 		strb	r3, [r0, #66]
 4503 00bc 0020     		movs	r0, #0
 4504 00be 7047     		bx	lr
 4506              		.section	.text.HAL_TIM_Encoder_Start_IT,"ax",%progbits
 4507              		.align	1
 4508              		.p2align 2,,3
 4509              		.global	HAL_TIM_Encoder_Start_IT
 4510              		.syntax unified
 4511              		.thumb
 4512              		.thumb_func
 4514              	HAL_TIM_Encoder_Start_IT:
 4515              		@ args = 0, pretend = 0, frame = 0
 4516              		@ frame_needed = 0, uses_anonymous_args = 0
 4517 0000 00B5     		push	{lr}
 4518 0002 0346     		mov	r3, r0
 4519 0004 90F83E00 		ldrb	r0, [r0, #62]	@ zero_extendqisi2
 4520 0008 93F83F20 		ldrb	r2, [r3, #63]	@ zero_extendqisi2
 4521 000c 93F842C0 		ldrb	ip, [r3, #66]	@ zero_extendqisi2
 4522 0010 93F843E0 		ldrb	lr, [r3, #67]	@ zero_extendqisi2
 4523 0014 C0B2     		uxtb	r0, r0
 4524 0016 5FFA8CFC 		uxtb	ip, ip
 4525 001a 21B9     		cbnz	r1, .L950
 4526 001c 0128     		cmp	r0, #1
 4527 001e 33D0     		beq	.L961
 4528              	.L957:
 4529 0020 0120     		movs	r0, #1
 4530              	.L951:
 4531 0022 5DF804FB 		ldr	pc, [sp], #4
 4532              	.L950:
 4533 0026 0429     		cmp	r1, #4
 4534 0028 D2B2     		uxtb	r2, r2
 4535 002a 5FFA8EFE 		uxtb	lr, lr
 4536 002e 46D0     		beq	.L962
 4537 0030 0128     		cmp	r0, #1
 4538 0032 F5D1     		bne	.L957
 4539 0034 012A     		cmp	r2, #1
 4540 0036 F4D1     		bne	.L951
 4541 0038 BCF1010F 		cmp	ip, #1
 4542 003c F1D1     		bne	.L951
 4543 003e BEF1010F 		cmp	lr, #1
 4544 0042 EED1     		bne	.L951
 4545 0044 1A68     		ldr	r2, [r3]
 4546 0046 0221     		movs	r1, #2
 4547 0048 83F83E10 		strb	r1, [r3, #62]
 4548 004c 83F83F10 		strb	r1, [r3, #63]
 4549 0050 83F84210 		strb	r1, [r3, #66]
 4550 0054 83F84310 		strb	r1, [r3, #67]
 4551 0058 136A     		ldr	r3, [r2, #32]
 4552 005a 23F00103 		bic	r3, r3, #1
 4553 005e 1362     		str	r3, [r2, #32]
 4554 0060 136A     		ldr	r3, [r2, #32]
 4555 0062 43F00103 		orr	r3, r3, #1
ARM GAS  /tmp/cc58c9Ir.s 			page 79


 4556 0066 1362     		str	r3, [r2, #32]
 4557 0068 136A     		ldr	r3, [r2, #32]
 4558 006a 23F01003 		bic	r3, r3, #16
 4559 006e 1362     		str	r3, [r2, #32]
 4560 0070 136A     		ldr	r3, [r2, #32]
 4561 0072 43F01003 		orr	r3, r3, #16
 4562 0076 1362     		str	r3, [r2, #32]
 4563 0078 D368     		ldr	r3, [r2, #12]
 4564 007a 0B43     		orrs	r3, r3, r1
 4565 007c D360     		str	r3, [r2, #12]
 4566 007e D368     		ldr	r3, [r2, #12]
 4567 0080 43F00403 		orr	r3, r3, #4
 4568 0084 D360     		str	r3, [r2, #12]
 4569 0086 13E0     		b	.L952
 4570              	.L961:
 4571 0088 BCF1010F 		cmp	ip, #1
 4572 008c C9D1     		bne	.L951
 4573 008e 1A68     		ldr	r2, [r3]
 4574 0090 0221     		movs	r1, #2
 4575 0092 83F83E10 		strb	r1, [r3, #62]
 4576 0096 83F84210 		strb	r1, [r3, #66]
 4577 009a 136A     		ldr	r3, [r2, #32]
 4578 009c 23F00103 		bic	r3, r3, #1
 4579 00a0 1362     		str	r3, [r2, #32]
 4580 00a2 136A     		ldr	r3, [r2, #32]
 4581 00a4 43F00103 		orr	r3, r3, #1
 4582 00a8 1362     		str	r3, [r2, #32]
 4583 00aa D368     		ldr	r3, [r2, #12]
 4584 00ac 0B43     		orrs	r3, r3, r1
 4585 00ae D360     		str	r3, [r2, #12]
 4586              	.L952:
 4587 00b0 1368     		ldr	r3, [r2]
 4588 00b2 43F00103 		orr	r3, r3, #1
 4589 00b6 0020     		movs	r0, #0
 4590 00b8 1360     		str	r3, [r2]
 4591 00ba 5DF804FB 		ldr	pc, [sp], #4
 4592              	.L962:
 4593 00be 012A     		cmp	r2, #1
 4594 00c0 AED1     		bne	.L957
 4595 00c2 BEF1010F 		cmp	lr, #1
 4596 00c6 ABD1     		bne	.L957
 4597 00c8 1A68     		ldr	r2, [r3]
 4598 00ca 0221     		movs	r1, #2
 4599 00cc 83F83F10 		strb	r1, [r3, #63]
 4600 00d0 83F84310 		strb	r1, [r3, #67]
 4601 00d4 136A     		ldr	r3, [r2, #32]
 4602 00d6 23F01003 		bic	r3, r3, #16
 4603 00da 1362     		str	r3, [r2, #32]
 4604 00dc 136A     		ldr	r3, [r2, #32]
 4605 00de 43F01003 		orr	r3, r3, #16
 4606 00e2 1362     		str	r3, [r2, #32]
 4607 00e4 D368     		ldr	r3, [r2, #12]
 4608 00e6 43F00403 		orr	r3, r3, #4
 4609 00ea D360     		str	r3, [r2, #12]
 4610 00ec E0E7     		b	.L952
 4612              		.section	.text.HAL_TIM_Encoder_Stop_IT,"ax",%progbits
 4613              		.align	1
ARM GAS  /tmp/cc58c9Ir.s 			page 80


 4614              		.p2align 2,,3
 4615              		.global	HAL_TIM_Encoder_Stop_IT
 4616              		.syntax unified
 4617              		.thumb
 4618              		.thumb_func
 4620              	HAL_TIM_Encoder_Stop_IT:
 4621              		@ args = 0, pretend = 0, frame = 0
 4622              		@ frame_needed = 0, uses_anonymous_args = 0
 4623              		@ link register save eliminated.
 4624 0000 0368     		ldr	r3, [r0]
 4625 0002 1A6A     		ldr	r2, [r3, #32]
 4626 0004 A1B9     		cbnz	r1, .L964
 4627 0006 22F00102 		bic	r2, r2, #1
 4628 000a 1A62     		str	r2, [r3, #32]
 4629 000c 1A6A     		ldr	r2, [r3, #32]
 4630 000e 1A62     		str	r2, [r3, #32]
 4631 0010 DA68     		ldr	r2, [r3, #12]
 4632 0012 22F00202 		bic	r2, r2, #2
 4633 0016 DA60     		str	r2, [r3, #12]
 4634 0018 1A6A     		ldr	r2, [r3, #32]
 4635 001a 41F21111 		movw	r1, #4369
 4636 001e 0A42     		tst	r2, r1
 4637 0020 34D0     		beq	.L965
 4638              	.L966:
 4639 0022 0123     		movs	r3, #1
 4640 0024 80F83E30 		strb	r3, [r0, #62]
 4641 0028 80F84230 		strb	r3, [r0, #66]
 4642 002c 0020     		movs	r0, #0
 4643 002e 7047     		bx	lr
 4644              	.L964:
 4645 0030 0429     		cmp	r1, #4
 4646 0032 41F21111 		movw	r1, #4369
 4647 0036 33D0     		beq	.L977
 4648 0038 22F00102 		bic	r2, r2, #1
 4649 003c 1A62     		str	r2, [r3, #32]
 4650 003e 1A6A     		ldr	r2, [r3, #32]
 4651 0040 1A62     		str	r2, [r3, #32]
 4652 0042 1A6A     		ldr	r2, [r3, #32]
 4653 0044 22F01002 		bic	r2, r2, #16
 4654 0048 1A62     		str	r2, [r3, #32]
 4655 004a 1A6A     		ldr	r2, [r3, #32]
 4656 004c 1A62     		str	r2, [r3, #32]
 4657 004e DA68     		ldr	r2, [r3, #12]
 4658 0050 22F00202 		bic	r2, r2, #2
 4659 0054 DA60     		str	r2, [r3, #12]
 4660 0056 DA68     		ldr	r2, [r3, #12]
 4661 0058 22F00402 		bic	r2, r2, #4
 4662 005c DA60     		str	r2, [r3, #12]
 4663 005e 1A6A     		ldr	r2, [r3, #32]
 4664 0060 0A42     		tst	r2, r1
 4665 0062 08D1     		bne	.L971
 4666 0064 196A     		ldr	r1, [r3, #32]
 4667 0066 40F24442 		movw	r2, #1092
 4668 006a 1142     		tst	r1, r2
 4669 006c 03D1     		bne	.L971
 4670 006e 1A68     		ldr	r2, [r3]
 4671 0070 22F00102 		bic	r2, r2, #1
ARM GAS  /tmp/cc58c9Ir.s 			page 81


 4672 0074 1A60     		str	r2, [r3]
 4673              	.L971:
 4674 0076 0123     		movs	r3, #1
 4675 0078 80F83E30 		strb	r3, [r0, #62]
 4676 007c 80F83F30 		strb	r3, [r0, #63]
 4677 0080 80F84230 		strb	r3, [r0, #66]
 4678 0084 80F84330 		strb	r3, [r0, #67]
 4679 0088 0020     		movs	r0, #0
 4680 008a 7047     		bx	lr
 4681              	.L965:
 4682 008c 196A     		ldr	r1, [r3, #32]
 4683 008e 40F24442 		movw	r2, #1092
 4684 0092 1142     		tst	r1, r2
 4685 0094 C5D1     		bne	.L966
 4686 0096 1A68     		ldr	r2, [r3]
 4687 0098 22F00102 		bic	r2, r2, #1
 4688 009c 1A60     		str	r2, [r3]
 4689 009e C0E7     		b	.L966
 4690              	.L977:
 4691 00a0 22F01002 		bic	r2, r2, #16
 4692 00a4 1A62     		str	r2, [r3, #32]
 4693 00a6 1A6A     		ldr	r2, [r3, #32]
 4694 00a8 1A62     		str	r2, [r3, #32]
 4695 00aa DA68     		ldr	r2, [r3, #12]
 4696 00ac 22F00402 		bic	r2, r2, #4
 4697 00b0 DA60     		str	r2, [r3, #12]
 4698 00b2 1A6A     		ldr	r2, [r3, #32]
 4699 00b4 0A42     		tst	r2, r1
 4700 00b6 08D1     		bne	.L969
 4701 00b8 196A     		ldr	r1, [r3, #32]
 4702 00ba 40F24442 		movw	r2, #1092
 4703 00be 1142     		tst	r1, r2
 4704 00c0 03D1     		bne	.L969
 4705 00c2 1A68     		ldr	r2, [r3]
 4706 00c4 22F00102 		bic	r2, r2, #1
 4707 00c8 1A60     		str	r2, [r3]
 4708              	.L969:
 4709 00ca 0123     		movs	r3, #1
 4710 00cc 80F83F30 		strb	r3, [r0, #63]
 4711 00d0 80F84330 		strb	r3, [r0, #67]
 4712 00d4 0020     		movs	r0, #0
 4713 00d6 7047     		bx	lr
 4715              		.section	.text.HAL_TIM_Encoder_Start_DMA,"ax",%progbits
 4716              		.align	1
 4717              		.p2align 2,,3
 4718              		.global	HAL_TIM_Encoder_Start_DMA
 4719              		.syntax unified
 4720              		.thumb
 4721              		.thumb_func
 4723              	HAL_TIM_Encoder_Start_DMA:
 4724              		@ args = 4, pretend = 0, frame = 0
 4725              		@ frame_needed = 0, uses_anonymous_args = 0
 4726 0000 2DE9F843 		push	{r3, r4, r5, r6, r7, r8, r9, lr}
 4727 0004 0446     		mov	r4, r0
 4728 0006 1D46     		mov	r5, r3
 4729 0008 90F83E00 		ldrb	r0, [r0, #62]	@ zero_extendqisi2
 4730 000c 94F83F30 		ldrb	r3, [r4, #63]	@ zero_extendqisi2
ARM GAS  /tmp/cc58c9Ir.s 			page 82


 4731 0010 94F842C0 		ldrb	ip, [r4, #66]	@ zero_extendqisi2
 4732 0014 BDF82070 		ldrh	r7, [sp, #32]
 4733 0018 5FFA83FE 		uxtb	lr, r3
 4734 001c C0B2     		uxtb	r0, r0
 4735 001e 94F84330 		ldrb	r3, [r4, #67]	@ zero_extendqisi2
 4736 0022 5FFA8CFC 		uxtb	ip, ip
 4737 0026 0029     		cmp	r1, #0
 4738 0028 31D1     		bne	.L979
 4739 002a 0228     		cmp	r0, #2
 4740 002c 43D0     		beq	.L980
 4741 002e BCF1020F 		cmp	ip, #2
 4742 0032 6AD0     		beq	.L992
 4743 0034 0128     		cmp	r0, #1
 4744 0036 3DD1     		bne	.L982
 4745 0038 BCF1010F 		cmp	ip, #1
 4746 003c 3AD1     		bne	.L982
 4747 003e 002A     		cmp	r2, #0
 4748 0040 38D0     		beq	.L982
 4749 0042 002F     		cmp	r7, #0
 4750 0044 36D0     		beq	.L982
 4751 0046 606A     		ldr	r0, [r4, #36]
 4752 0048 0221     		movs	r1, #2
 4753 004a 84F83E10 		strb	r1, [r4, #62]
 4754 004e 84F84210 		strb	r1, [r4, #66]
 4755 0052 5949     		ldr	r1, .L1028
 4756 0054 C163     		str	r1, [r0, #60]
 4757 0056 5949     		ldr	r1, .L1028+4
 4758 0058 0164     		str	r1, [r0, #64]
 4759 005a 5949     		ldr	r1, .L1028+8
 4760 005c C164     		str	r1, [r0, #76]
 4761 005e 2168     		ldr	r1, [r4]
 4762 0060 3B46     		mov	r3, r7
 4763 0062 3431     		adds	r1, r1, #52
 4764 0064 FFF7FEFF 		bl	HAL_DMA_Start_IT
 4765 0068 20BB     		cbnz	r0, .L982
 4766 006a 2368     		ldr	r3, [r4]
 4767 006c DA68     		ldr	r2, [r3, #12]
 4768 006e 42F40072 		orr	r2, r2, #512
 4769 0072 DA60     		str	r2, [r3, #12]
 4770 0074 1A6A     		ldr	r2, [r3, #32]
 4771 0076 22F00102 		bic	r2, r2, #1
 4772 007a 1A62     		str	r2, [r3, #32]
 4773 007c 1A6A     		ldr	r2, [r3, #32]
 4774 007e 42F00102 		orr	r2, r2, #1
 4775 0082 1A62     		str	r2, [r3, #32]
 4776 0084 1A68     		ldr	r2, [r3]
 4777 0086 42F00102 		orr	r2, r2, #1
 4778 008a 1A60     		str	r2, [r3]
 4779 008c 90E0     		b	.L987
 4780              	.L979:
 4781 008e 0429     		cmp	r1, #4
 4782 0090 DBB2     		uxtb	r3, r3
 4783 0092 12D0     		beq	.L1026
 4784 0094 0228     		cmp	r0, #2
 4785 0096 0ED0     		beq	.L980
 4786 0098 BEF1020F 		cmp	lr, #2
 4787 009c 37D0     		beq	.L991
ARM GAS  /tmp/cc58c9Ir.s 			page 83


 4788 009e BCF1020F 		cmp	ip, #2
 4789 00a2 32D0     		beq	.L992
 4790 00a4 022B     		cmp	r3, #2
 4791 00a6 00F08580 		beq	.L993
 4792 00aa 0128     		cmp	r0, #1
 4793 00ac 02D1     		bne	.L982
 4794 00ae BEF1010F 		cmp	lr, #1
 4795 00b2 2ED0     		beq	.L1027
 4796              	.L982:
 4797 00b4 0120     		movs	r0, #1
 4798              	.L980:
 4799 00b6 BDE8F883 		pop	{r3, r4, r5, r6, r7, r8, r9, pc}
 4800              	.L1026:
 4801 00ba BEF1020F 		cmp	lr, #2
 4802 00be 26D0     		beq	.L991
 4803 00c0 022B     		cmp	r3, #2
 4804 00c2 77D0     		beq	.L993
 4805 00c4 BEF1010F 		cmp	lr, #1
 4806 00c8 F4D1     		bne	.L982
 4807 00ca 012B     		cmp	r3, #1
 4808 00cc F2D1     		bne	.L982
 4809 00ce 002D     		cmp	r5, #0
 4810 00d0 F0D0     		beq	.L982
 4811 00d2 002F     		cmp	r7, #0
 4812 00d4 EED0     		beq	.L982
 4813 00d6 A06A     		ldr	r0, [r4, #40]
 4814 00d8 2168     		ldr	r1, [r4]
 4815 00da 0222     		movs	r2, #2
 4816 00dc 84F83F20 		strb	r2, [r4, #63]
 4817 00e0 84F84320 		strb	r2, [r4, #67]
 4818 00e4 344A     		ldr	r2, .L1028
 4819 00e6 C263     		str	r2, [r0, #60]
 4820 00e8 344A     		ldr	r2, .L1028+4
 4821 00ea 0264     		str	r2, [r0, #64]
 4822 00ec 344A     		ldr	r2, .L1028+8
 4823 00ee C264     		str	r2, [r0, #76]
 4824 00f0 3B46     		mov	r3, r7
 4825 00f2 2A46     		mov	r2, r5
 4826 00f4 3831     		adds	r1, r1, #56
 4827 00f6 FFF7FEFF 		bl	HAL_DMA_Start_IT
 4828 00fa 0028     		cmp	r0, #0
 4829 00fc DAD1     		bne	.L982
 4830 00fe 2368     		ldr	r3, [r4]
 4831 0100 DA68     		ldr	r2, [r3, #12]
 4832 0102 42F48062 		orr	r2, r2, #1024
 4833 0106 DA60     		str	r2, [r3, #12]
 4834 0108 46E0     		b	.L1025
 4835              	.L992:
 4836 010a 6046     		mov	r0, ip
 4837 010c D3E7     		b	.L980
 4838              	.L991:
 4839 010e 7046     		mov	r0, lr
 4840 0110 D1E7     		b	.L980
 4841              	.L1027:
 4842 0112 BCF1010F 		cmp	ip, #1
 4843 0116 CDD1     		bne	.L982
 4844 0118 012B     		cmp	r3, #1
ARM GAS  /tmp/cc58c9Ir.s 			page 84


 4845 011a CBD1     		bne	.L982
 4846 011c 002A     		cmp	r2, #0
 4847 011e C9D0     		beq	.L982
 4848 0120 002D     		cmp	r5, #0
 4849 0122 C7D0     		beq	.L982
 4850 0124 002F     		cmp	r7, #0
 4851 0126 C5D0     		beq	.L982
 4852 0128 2168     		ldr	r1, [r4]
 4853 012a 606A     		ldr	r0, [r4, #36]
 4854 012c DFF88890 		ldr	r9, .L1028
 4855 0130 DFF88880 		ldr	r8, .L1028+4
 4856 0134 224E     		ldr	r6, .L1028+8
 4857 0136 0223     		movs	r3, #2
 4858 0138 84F83E30 		strb	r3, [r4, #62]
 4859 013c 3431     		adds	r1, r1, #52
 4860 013e 84F83F30 		strb	r3, [r4, #63]
 4861 0142 84F84230 		strb	r3, [r4, #66]
 4862 0146 84F84330 		strb	r3, [r4, #67]
 4863 014a C0F83C90 		str	r9, [r0, #60]
 4864 014e C0F84080 		str	r8, [r0, #64]
 4865 0152 C664     		str	r6, [r0, #76]
 4866 0154 3B46     		mov	r3, r7
 4867 0156 FFF7FEFF 		bl	HAL_DMA_Start_IT
 4868 015a 0028     		cmp	r0, #0
 4869 015c AAD1     		bne	.L982
 4870 015e A06A     		ldr	r0, [r4, #40]
 4871 0160 2168     		ldr	r1, [r4]
 4872 0162 C664     		str	r6, [r0, #76]
 4873 0164 C0E90F98 		strd	r9, r8, [r0, #60]
 4874 0168 3B46     		mov	r3, r7
 4875 016a 2A46     		mov	r2, r5
 4876 016c 3831     		adds	r1, r1, #56
 4877 016e FFF7FEFF 		bl	HAL_DMA_Start_IT
 4878 0172 0028     		cmp	r0, #0
 4879 0174 9ED1     		bne	.L982
 4880 0176 2368     		ldr	r3, [r4]
 4881 0178 DA68     		ldr	r2, [r3, #12]
 4882 017a 42F40072 		orr	r2, r2, #512
 4883 017e DA60     		str	r2, [r3, #12]
 4884 0180 DA68     		ldr	r2, [r3, #12]
 4885 0182 42F48062 		orr	r2, r2, #1024
 4886 0186 DA60     		str	r2, [r3, #12]
 4887 0188 1A6A     		ldr	r2, [r3, #32]
 4888 018a 22F00102 		bic	r2, r2, #1
 4889 018e 1A62     		str	r2, [r3, #32]
 4890 0190 1A6A     		ldr	r2, [r3, #32]
 4891 0192 42F00102 		orr	r2, r2, #1
 4892 0196 1A62     		str	r2, [r3, #32]
 4893              	.L1025:
 4894 0198 1A6A     		ldr	r2, [r3, #32]
 4895 019a 22F01002 		bic	r2, r2, #16
 4896 019e 1A62     		str	r2, [r3, #32]
 4897 01a0 1A6A     		ldr	r2, [r3, #32]
 4898 01a2 42F01002 		orr	r2, r2, #16
 4899 01a6 1A62     		str	r2, [r3, #32]
 4900 01a8 1A68     		ldr	r2, [r3]
 4901 01aa 42F00102 		orr	r2, r2, #1
ARM GAS  /tmp/cc58c9Ir.s 			page 85


 4902 01ae 1A60     		str	r2, [r3]
 4903              	.L987:
 4904 01b0 0020     		movs	r0, #0
 4905 01b2 80E7     		b	.L980
 4906              	.L993:
 4907 01b4 1846     		mov	r0, r3
 4908 01b6 7EE7     		b	.L980
 4909              	.L1029:
 4910              		.align	2
 4911              	.L1028:
 4912 01b8 00000000 		.word	TIM_DMACaptureCplt
 4913 01bc 00000000 		.word	TIM_DMACaptureHalfCplt
 4914 01c0 00000000 		.word	TIM_DMAError
 4916              		.section	.text.HAL_TIM_Encoder_Stop_DMA,"ax",%progbits
 4917              		.align	1
 4918              		.p2align 2,,3
 4919              		.global	HAL_TIM_Encoder_Stop_DMA
 4920              		.syntax unified
 4921              		.thumb
 4922              		.thumb_func
 4924              	HAL_TIM_Encoder_Stop_DMA:
 4925              		@ args = 0, pretend = 0, frame = 0
 4926              		@ frame_needed = 0, uses_anonymous_args = 0
 4927 0000 0368     		ldr	r3, [r0]
 4928 0002 10B5     		push	{r4, lr}
 4929 0004 1A6A     		ldr	r2, [r3, #32]
 4930 0006 0446     		mov	r4, r0
 4931 0008 0029     		cmp	r1, #0
 4932 000a 52D0     		beq	.L1045
 4933 000c 0429     		cmp	r1, #4
 4934 000e 2ED0     		beq	.L1046
 4935 0010 22F00102 		bic	r2, r2, #1
 4936 0014 406A     		ldr	r0, [r0, #36]
 4937 0016 1A62     		str	r2, [r3, #32]
 4938 0018 1A6A     		ldr	r2, [r3, #32]
 4939 001a 1A62     		str	r2, [r3, #32]
 4940 001c 1A6A     		ldr	r2, [r3, #32]
 4941 001e 22F01002 		bic	r2, r2, #16
 4942 0022 1A62     		str	r2, [r3, #32]
 4943 0024 1A6A     		ldr	r2, [r3, #32]
 4944 0026 1A62     		str	r2, [r3, #32]
 4945 0028 DA68     		ldr	r2, [r3, #12]
 4946 002a 22F40072 		bic	r2, r2, #512
 4947 002e DA60     		str	r2, [r3, #12]
 4948 0030 DA68     		ldr	r2, [r3, #12]
 4949 0032 22F48062 		bic	r2, r2, #1024
 4950 0036 DA60     		str	r2, [r3, #12]
 4951 0038 FFF7FEFF 		bl	HAL_DMA_Abort_IT
 4952 003c A06A     		ldr	r0, [r4, #40]
 4953 003e FFF7FEFF 		bl	HAL_DMA_Abort_IT
 4954 0042 2368     		ldr	r3, [r4]
 4955 0044 196A     		ldr	r1, [r3, #32]
 4956 0046 41F21112 		movw	r2, #4369
 4957 004a 1142     		tst	r1, r2
 4958 004c 04D1     		bne	.L1038
 4959 004e 196A     		ldr	r1, [r3, #32]
 4960 0050 40F24442 		movw	r2, #1092
ARM GAS  /tmp/cc58c9Ir.s 			page 86


 4961 0054 1142     		tst	r1, r2
 4962 0056 4ED0     		beq	.L1047
 4963              	.L1038:
 4964 0058 0123     		movs	r3, #1
 4965 005a 84F83E30 		strb	r3, [r4, #62]
 4966 005e 84F83F30 		strb	r3, [r4, #63]
 4967 0062 84F84230 		strb	r3, [r4, #66]
 4968 0066 84F84330 		strb	r3, [r4, #67]
 4969 006a 0020     		movs	r0, #0
 4970 006c 10BD     		pop	{r4, pc}
 4971              	.L1046:
 4972 006e 22F01002 		bic	r2, r2, #16
 4973 0072 806A     		ldr	r0, [r0, #40]
 4974 0074 1A62     		str	r2, [r3, #32]
 4975 0076 1A6A     		ldr	r2, [r3, #32]
 4976 0078 1A62     		str	r2, [r3, #32]
 4977 007a DA68     		ldr	r2, [r3, #12]
 4978 007c 22F48062 		bic	r2, r2, #1024
 4979 0080 DA60     		str	r2, [r3, #12]
 4980 0082 FFF7FEFF 		bl	HAL_DMA_Abort_IT
 4981 0086 2368     		ldr	r3, [r4]
 4982 0088 196A     		ldr	r1, [r3, #32]
 4983 008a 41F21112 		movw	r2, #4369
 4984 008e 1142     		tst	r1, r2
 4985 0090 08D1     		bne	.L1036
 4986 0092 196A     		ldr	r1, [r3, #32]
 4987 0094 40F24442 		movw	r2, #1092
 4988 0098 1142     		tst	r1, r2
 4989 009a 03D1     		bne	.L1036
 4990 009c 1A68     		ldr	r2, [r3]
 4991 009e 22F00102 		bic	r2, r2, #1
 4992 00a2 1A60     		str	r2, [r3]
 4993              	.L1036:
 4994 00a4 0123     		movs	r3, #1
 4995 00a6 84F83F30 		strb	r3, [r4, #63]
 4996 00aa 84F84330 		strb	r3, [r4, #67]
 4997 00ae 0020     		movs	r0, #0
 4998 00b0 10BD     		pop	{r4, pc}
 4999              	.L1045:
 5000 00b2 22F00102 		bic	r2, r2, #1
 5001 00b6 406A     		ldr	r0, [r0, #36]
 5002 00b8 1A62     		str	r2, [r3, #32]
 5003 00ba 1A6A     		ldr	r2, [r3, #32]
 5004 00bc 1A62     		str	r2, [r3, #32]
 5005 00be DA68     		ldr	r2, [r3, #12]
 5006 00c0 22F40072 		bic	r2, r2, #512
 5007 00c4 DA60     		str	r2, [r3, #12]
 5008 00c6 FFF7FEFF 		bl	HAL_DMA_Abort_IT
 5009 00ca 2368     		ldr	r3, [r4]
 5010 00cc 196A     		ldr	r1, [r3, #32]
 5011 00ce 41F21112 		movw	r2, #4369
 5012 00d2 1142     		tst	r1, r2
 5013 00d4 08D1     		bne	.L1033
 5014 00d6 196A     		ldr	r1, [r3, #32]
 5015 00d8 40F24442 		movw	r2, #1092
 5016 00dc 1142     		tst	r1, r2
 5017 00de 03D1     		bne	.L1033
ARM GAS  /tmp/cc58c9Ir.s 			page 87


 5018 00e0 1A68     		ldr	r2, [r3]
 5019 00e2 22F00102 		bic	r2, r2, #1
 5020 00e6 1A60     		str	r2, [r3]
 5021              	.L1033:
 5022 00e8 0123     		movs	r3, #1
 5023 00ea 84F83E30 		strb	r3, [r4, #62]
 5024 00ee 84F84230 		strb	r3, [r4, #66]
 5025 00f2 0020     		movs	r0, #0
 5026 00f4 10BD     		pop	{r4, pc}
 5027              	.L1047:
 5028 00f6 1A68     		ldr	r2, [r3]
 5029 00f8 22F00102 		bic	r2, r2, #1
 5030 00fc 1A60     		str	r2, [r3]
 5031 00fe ABE7     		b	.L1038
 5033              		.section	.text.HAL_TIM_OC_ConfigChannel,"ax",%progbits
 5034              		.align	1
 5035              		.p2align 2,,3
 5036              		.global	HAL_TIM_OC_ConfigChannel
 5037              		.syntax unified
 5038              		.thumb
 5039              		.thumb_func
 5041              	HAL_TIM_OC_ConfigChannel:
 5042              		@ args = 0, pretend = 0, frame = 0
 5043              		@ frame_needed = 0, uses_anonymous_args = 0
 5044 0000 90F83C30 		ldrb	r3, [r0, #60]	@ zero_extendqisi2
 5045 0004 012B     		cmp	r3, #1
 5046 0006 00F0A380 		beq	.L1067
 5047 000a 70B5     		push	{r4, r5, r6, lr}
 5048 000c 8446     		mov	ip, r0
 5049 000e 0C2A     		cmp	r2, #12
 5050 0010 1CD8     		bhi	.L1068
 5051 0012 01A3     		adr	r3, .L1052
 5052 0014 53F822F0 		ldr	pc, [r3, r2, lsl #2]
 5053              		.p2align 2
 5054              	.L1052:
 5055 0018 9D000000 		.word	.L1055+1
 5056 001c 4D000000 		.word	.L1068+1
 5057 0020 4D000000 		.word	.L1068+1
 5058 0024 4D000000 		.word	.L1068+1
 5059 0028 D7000000 		.word	.L1054+1
 5060 002c 4D000000 		.word	.L1068+1
 5061 0030 4D000000 		.word	.L1068+1
 5062 0034 4D000000 		.word	.L1068+1
 5063 0038 15010000 		.word	.L1053+1
 5064 003c 4D000000 		.word	.L1068+1
 5065 0040 4D000000 		.word	.L1068+1
 5066 0044 4D000000 		.word	.L1068+1
 5067 0048 57000000 		.word	.L1051+1
 5068              		.p2align 1
 5069              	.L1068:
 5070 004c 0023     		movs	r3, #0
 5071 004e 8CF83C30 		strb	r3, [ip, #60]
 5072 0052 0120     		movs	r0, #1
 5073 0054 70BD     		pop	{r4, r5, r6, pc}
 5074              	.L1051:
 5075 0056 0368     		ldr	r3, [r0]
 5076 0058 0D68     		ldr	r5, [r1]
ARM GAS  /tmp/cc58c9Ir.s 			page 88


 5077 005a 1A6A     		ldr	r2, [r3, #32]
 5078 005c 186A     		ldr	r0, [r3, #32]
 5079 005e 20F48050 		bic	r0, r0, #4096
 5080 0062 1862     		str	r0, [r3, #32]
 5081 0064 5C68     		ldr	r4, [r3, #4]
 5082 0066 D869     		ldr	r0, [r3, #28]
 5083 0068 20F4E640 		bic	r0, r0, #29440
 5084 006c 40EA0520 		orr	r0, r0, r5, lsl #8
 5085 0070 8D68     		ldr	r5, [r1, #8]
 5086 0072 22F40052 		bic	r2, r2, #8192
 5087 0076 42EA0532 		orr	r2, r2, r5, lsl #12
 5088 007a 514D     		ldr	r5, .L1073
 5089 007c AB42     		cmp	r3, r5
 5090 007e 79D0     		beq	.L1065
 5091 0080 05F58065 		add	r5, r5, #1024
 5092 0084 AB42     		cmp	r3, r5
 5093 0086 75D0     		beq	.L1065
 5094              	.L1066:
 5095 0088 4968     		ldr	r1, [r1, #4]
 5096 008a 5C60     		str	r4, [r3, #4]
 5097 008c D861     		str	r0, [r3, #28]
 5098 008e 1964     		str	r1, [r3, #64]
 5099 0090 1A62     		str	r2, [r3, #32]
 5100              	.L1058:
 5101 0092 0023     		movs	r3, #0
 5102 0094 8CF83C30 		strb	r3, [ip, #60]
 5103 0098 0020     		movs	r0, #0
 5104 009a 70BD     		pop	{r4, r5, r6, pc}
 5105              	.L1055:
 5106 009c 0368     		ldr	r3, [r0]
 5107 009e 0D68     		ldr	r5, [r1]
 5108 00a0 1A6A     		ldr	r2, [r3, #32]
 5109 00a2 186A     		ldr	r0, [r3, #32]
 5110 00a4 20F00100 		bic	r0, r0, #1
 5111 00a8 1862     		str	r0, [r3, #32]
 5112 00aa 5C68     		ldr	r4, [r3, #4]
 5113 00ac 9869     		ldr	r0, [r3, #24]
 5114 00ae 20F07300 		bic	r0, r0, #115
 5115 00b2 2843     		orrs	r0, r0, r5
 5116 00b4 8D68     		ldr	r5, [r1, #8]
 5117 00b6 22F00202 		bic	r2, r2, #2
 5118 00ba 2A43     		orrs	r2, r2, r5
 5119 00bc 404D     		ldr	r5, .L1073
 5120 00be AB42     		cmp	r3, r5
 5121 00c0 5ED0     		beq	.L1056
 5122 00c2 05F58065 		add	r5, r5, #1024
 5123 00c6 AB42     		cmp	r3, r5
 5124 00c8 5AD0     		beq	.L1056
 5125              	.L1057:
 5126 00ca 4968     		ldr	r1, [r1, #4]
 5127 00cc 5C60     		str	r4, [r3, #4]
 5128 00ce 9861     		str	r0, [r3, #24]
 5129 00d0 5963     		str	r1, [r3, #52]
 5130 00d2 1A62     		str	r2, [r3, #32]
 5131 00d4 DDE7     		b	.L1058
 5132              	.L1054:
 5133 00d6 0368     		ldr	r3, [r0]
ARM GAS  /tmp/cc58c9Ir.s 			page 89


 5134 00d8 0D68     		ldr	r5, [r1]
 5135 00da 1A6A     		ldr	r2, [r3, #32]
 5136 00dc 186A     		ldr	r0, [r3, #32]
 5137 00de 20F01000 		bic	r0, r0, #16
 5138 00e2 1862     		str	r0, [r3, #32]
 5139 00e4 5C68     		ldr	r4, [r3, #4]
 5140 00e6 9869     		ldr	r0, [r3, #24]
 5141 00e8 20F4E640 		bic	r0, r0, #29440
 5142 00ec 40EA0520 		orr	r0, r0, r5, lsl #8
 5143 00f0 8D68     		ldr	r5, [r1, #8]
 5144 00f2 22F02002 		bic	r2, r2, #32
 5145 00f6 42EA0512 		orr	r2, r2, r5, lsl #4
 5146 00fa 314D     		ldr	r5, .L1073
 5147 00fc AB42     		cmp	r3, r5
 5148 00fe 4ED0     		beq	.L1059
 5149 0100 05F58065 		add	r5, r5, #1024
 5150 0104 AB42     		cmp	r3, r5
 5151 0106 4AD0     		beq	.L1059
 5152              	.L1060:
 5153 0108 4968     		ldr	r1, [r1, #4]
 5154 010a 5C60     		str	r4, [r3, #4]
 5155 010c 9861     		str	r0, [r3, #24]
 5156 010e 9963     		str	r1, [r3, #56]
 5157 0110 1A62     		str	r2, [r3, #32]
 5158 0112 BEE7     		b	.L1058
 5159              	.L1053:
 5160 0114 0368     		ldr	r3, [r0]
 5161 0116 0D68     		ldr	r5, [r1]
 5162 0118 1A6A     		ldr	r2, [r3, #32]
 5163 011a 186A     		ldr	r0, [r3, #32]
 5164 011c 20F48070 		bic	r0, r0, #256
 5165 0120 1862     		str	r0, [r3, #32]
 5166 0122 5C68     		ldr	r4, [r3, #4]
 5167 0124 D869     		ldr	r0, [r3, #28]
 5168 0126 20F07300 		bic	r0, r0, #115
 5169 012a 2843     		orrs	r0, r0, r5
 5170 012c 8D68     		ldr	r5, [r1, #8]
 5171 012e 22F40072 		bic	r2, r2, #512
 5172 0132 42EA0522 		orr	r2, r2, r5, lsl #8
 5173 0136 224D     		ldr	r5, .L1073
 5174 0138 AB42     		cmp	r3, r5
 5175 013a 0BD0     		beq	.L1062
 5176 013c 05F58065 		add	r5, r5, #1024
 5177 0140 AB42     		cmp	r3, r5
 5178 0142 07D0     		beq	.L1062
 5179              	.L1063:
 5180 0144 4968     		ldr	r1, [r1, #4]
 5181 0146 5C60     		str	r4, [r3, #4]
 5182 0148 D861     		str	r0, [r3, #28]
 5183 014a D963     		str	r1, [r3, #60]
 5184 014c 1A62     		str	r2, [r3, #32]
 5185 014e A0E7     		b	.L1058
 5186              	.L1067:
 5187 0150 0220     		movs	r0, #2
 5188 0152 7047     		bx	lr
 5189              	.L1062:
 5190 0154 CD68     		ldr	r5, [r1, #12]
ARM GAS  /tmp/cc58c9Ir.s 			page 90


 5191 0156 22F40062 		bic	r2, r2, #2048
 5192 015a 42EA0522 		orr	r2, r2, r5, lsl #8
 5193 015e D1E90565 		ldrd	r6, r5, [r1, #20]
 5194 0162 24F44054 		bic	r4, r4, #12288
 5195 0166 46EA050E 		orr	lr, r6, r5
 5196 016a 22F48062 		bic	r2, r2, #1024
 5197 016e 44EA0E14 		orr	r4, r4, lr, lsl #4
 5198 0172 E7E7     		b	.L1063
 5199              	.L1065:
 5200 0174 4D69     		ldr	r5, [r1, #20]
 5201 0176 24F48044 		bic	r4, r4, #16384
 5202 017a 44EA8514 		orr	r4, r4, r5, lsl #6
 5203 017e 83E7     		b	.L1066
 5204              	.L1056:
 5205 0180 CD68     		ldr	r5, [r1, #12]
 5206 0182 22F00802 		bic	r2, r2, #8
 5207 0186 2A43     		orrs	r2, r2, r5
 5208 0188 D1E90565 		ldrd	r6, r5, [r1, #20]
 5209 018c 24F44074 		bic	r4, r4, #768
 5210 0190 46EA050E 		orr	lr, r6, r5
 5211 0194 22F00402 		bic	r2, r2, #4
 5212 0198 4EEA0404 		orr	r4, lr, r4
 5213 019c 95E7     		b	.L1057
 5214              	.L1059:
 5215 019e CD68     		ldr	r5, [r1, #12]
 5216 01a0 22F08002 		bic	r2, r2, #128
 5217 01a4 42EA0512 		orr	r2, r2, r5, lsl #4
 5218 01a8 D1E90565 		ldrd	r6, r5, [r1, #20]
 5219 01ac 24F44064 		bic	r4, r4, #3072
 5220 01b0 46EA050E 		orr	lr, r6, r5
 5221 01b4 22F04002 		bic	r2, r2, #64
 5222 01b8 44EA8E04 		orr	r4, r4, lr, lsl #2
 5223 01bc A4E7     		b	.L1060
 5224              	.L1074:
 5225 01be 00BF     		.align	2
 5226              	.L1073:
 5227 01c0 00000140 		.word	1073807360
 5229              		.section	.text.HAL_TIM_IC_ConfigChannel,"ax",%progbits
 5230              		.align	1
 5231              		.p2align 2,,3
 5232              		.global	HAL_TIM_IC_ConfigChannel
 5233              		.syntax unified
 5234              		.thumb
 5235              		.thumb_func
 5237              	HAL_TIM_IC_ConfigChannel:
 5238              		@ args = 0, pretend = 0, frame = 0
 5239              		@ frame_needed = 0, uses_anonymous_args = 0
 5240              		@ link register save eliminated.
 5241 0000 0346     		mov	r3, r0
 5242 0002 90F83C00 		ldrb	r0, [r0, #60]	@ zero_extendqisi2
 5243 0006 0128     		cmp	r0, #1
 5244 0008 00F0D480 		beq	.L1086
 5245 000c 0120     		movs	r0, #1
 5246 000e F0B4     		push	{r4, r5, r6, r7}
 5247 0010 83F83C00 		strb	r0, [r3, #60]
 5248 0014 0C2A     		cmp	r2, #12
 5249 0016 1DD8     		bhi	.L1087
ARM GAS  /tmp/cc58c9Ir.s 			page 91


 5250 0018 01A0     		adr	r0, .L1079
 5251 001a 50F822F0 		ldr	pc, [r0, r2, lsl #2]
 5252 001e 00BF     		.p2align 2
 5253              	.L1079:
 5254 0020 AF000000 		.word	.L1082+1
 5255 0024 55000000 		.word	.L1087+1
 5256 0028 55000000 		.word	.L1087+1
 5257 002c 55000000 		.word	.L1087+1
 5258 0030 07010000 		.word	.L1081+1
 5259 0034 55000000 		.word	.L1087+1
 5260 0038 55000000 		.word	.L1087+1
 5261 003c 55000000 		.word	.L1087+1
 5262 0040 4B010000 		.word	.L1080+1
 5263 0044 55000000 		.word	.L1087+1
 5264 0048 55000000 		.word	.L1087+1
 5265 004c 55000000 		.word	.L1087+1
 5266 0050 61000000 		.word	.L1078+1
 5267              		.p2align 1
 5268              	.L1087:
 5269 0054 0022     		movs	r2, #0
 5270 0056 83F83C20 		strb	r2, [r3, #60]
 5271 005a 0120     		movs	r0, #1
 5272 005c F0BC     		pop	{r4, r5, r6, r7}
 5273 005e 7047     		bx	lr
 5274              	.L1078:
 5275 0060 1A68     		ldr	r2, [r3]
 5276 0062 CE68     		ldr	r6, [r1, #12]
 5277 0064 146A     		ldr	r4, [r2, #32]
 5278 0066 D1E90005 		ldrd	r0, r5, [r1]
 5279 006a 0003     		lsls	r0, r0, #12
 5280 006c 24F42044 		bic	r4, r4, #40960
 5281 0070 00F42040 		and	r0, r0, #40960
 5282 0074 2043     		orrs	r0, r0, r4
 5283 0076 146A     		ldr	r4, [r2, #32]
 5284 0078 24F48054 		bic	r4, r4, #4096
 5285 007c 1462     		str	r4, [r2, #32]
 5286 007e 8C68     		ldr	r4, [r1, #8]
 5287 0080 D169     		ldr	r1, [r2, #28]
 5288 0082 21F44071 		bic	r1, r1, #768
 5289 0086 41EA0521 		orr	r1, r1, r5, lsl #8
 5290 008a 66F30F31 		bfi	r1, r6, #12, #4
 5291 008e D161     		str	r1, [r2, #28]
 5292 0090 1062     		str	r0, [r2, #32]
 5293 0092 D169     		ldr	r1, [r2, #28]
 5294 0094 21F44061 		bic	r1, r1, #3072
 5295 0098 D161     		str	r1, [r2, #28]
 5296 009a D169     		ldr	r1, [r2, #28]
 5297 009c 41EA0421 		orr	r1, r1, r4, lsl #8
 5298 00a0 D161     		str	r1, [r2, #28]
 5299              	.L1085:
 5300 00a2 0022     		movs	r2, #0
 5301 00a4 83F83C20 		strb	r2, [r3, #60]
 5302 00a8 0020     		movs	r0, #0
 5303 00aa F0BC     		pop	{r4, r5, r6, r7}
 5304 00ac 7047     		bx	lr
 5305              	.L1082:
 5306 00ae 1A68     		ldr	r2, [r3]
ARM GAS  /tmp/cc58c9Ir.s 			page 92


 5307 00b0 DFF804C1 		ldr	ip, .L1095
 5308 00b4 156A     		ldr	r5, [r2, #32]
 5309 00b6 166A     		ldr	r6, [r2, #32]
 5310 00b8 CF68     		ldr	r7, [r1, #12]
 5311 00ba 26F00106 		bic	r6, r6, #1
 5312 00be D1E90004 		ldrd	r0, r4, [r1]
 5313 00c2 6245     		cmp	r2, ip
 5314 00c4 1662     		str	r6, [r2, #32]
 5315 00c6 9669     		ldr	r6, [r2, #24]
 5316 00c8 5FD0     		beq	.L1083
 5317 00ca B2F1804F 		cmp	r2, #1073741824
 5318 00ce 5CD0     		beq	.L1083
 5319 00d0 ACF57C4C 		sub	ip, ip, #64512
 5320 00d4 6245     		cmp	r2, ip
 5321 00d6 58D0     		beq	.L1083
 5322 00d8 0CF5806C 		add	ip, ip, #1024
 5323 00dc 6245     		cmp	r2, ip
 5324 00de 54D0     		beq	.L1083
 5325 00e0 0CF5806C 		add	ip, ip, #1024
 5326 00e4 6245     		cmp	r2, ip
 5327 00e6 50D0     		beq	.L1083
 5328 00e8 0CF5784C 		add	ip, ip, #63488
 5329 00ec 6245     		cmp	r2, ip
 5330 00ee 4CD0     		beq	.L1083
 5331 00f0 0CF5705C 		add	ip, ip, #15360
 5332 00f4 6245     		cmp	r2, ip
 5333 00f6 48D0     		beq	.L1083
 5334 00f8 ACF5943C 		sub	ip, ip, #75776
 5335 00fc 6245     		cmp	r2, ip
 5336 00fe 44D0     		beq	.L1083
 5337 0100 46F00104 		orr	r4, r6, #1
 5338 0104 44E0     		b	.L1084
 5339              	.L1081:
 5340 0106 1A68     		ldr	r2, [r3]
 5341 0108 CE68     		ldr	r6, [r1, #12]
 5342 010a 146A     		ldr	r4, [r2, #32]
 5343 010c D1E90005 		ldrd	r0, r5, [r1]
 5344 0110 0001     		lsls	r0, r0, #4
 5345 0112 24F0A004 		bic	r4, r4, #160
 5346 0116 00F0A000 		and	r0, r0, #160
 5347 011a 2043     		orrs	r0, r0, r4
 5348 011c 146A     		ldr	r4, [r2, #32]
 5349 011e 24F01004 		bic	r4, r4, #16
 5350 0122 1462     		str	r4, [r2, #32]
 5351 0124 8C68     		ldr	r4, [r1, #8]
 5352 0126 9169     		ldr	r1, [r2, #24]
 5353 0128 21F44071 		bic	r1, r1, #768
 5354 012c 41EA0521 		orr	r1, r1, r5, lsl #8
 5355 0130 66F30F31 		bfi	r1, r6, #12, #4
 5356 0134 9161     		str	r1, [r2, #24]
 5357 0136 1062     		str	r0, [r2, #32]
 5358 0138 9169     		ldr	r1, [r2, #24]
 5359 013a 21F44061 		bic	r1, r1, #3072
 5360 013e 9161     		str	r1, [r2, #24]
 5361 0140 9169     		ldr	r1, [r2, #24]
 5362 0142 41EA0421 		orr	r1, r1, r4, lsl #8
 5363 0146 9161     		str	r1, [r2, #24]
ARM GAS  /tmp/cc58c9Ir.s 			page 93


 5364 0148 ABE7     		b	.L1085
 5365              	.L1080:
 5366 014a 1A68     		ldr	r2, [r3]
 5367 014c CE68     		ldr	r6, [r1, #12]
 5368 014e 156A     		ldr	r5, [r2, #32]
 5369 0150 D1E90004 		ldrd	r0, r4, [r1]
 5370 0154 0002     		lsls	r0, r0, #8
 5371 0156 25F42065 		bic	r5, r5, #2560
 5372 015a 00F42060 		and	r0, r0, #2560
 5373 015e 2843     		orrs	r0, r0, r5
 5374 0160 156A     		ldr	r5, [r2, #32]
 5375 0162 25F48075 		bic	r5, r5, #256
 5376 0166 1562     		str	r5, [r2, #32]
 5377 0168 8D68     		ldr	r5, [r1, #8]
 5378 016a D169     		ldr	r1, [r2, #28]
 5379 016c 21F00301 		bic	r1, r1, #3
 5380 0170 2143     		orrs	r1, r1, r4
 5381 0172 66F30711 		bfi	r1, r6, #4, #4
 5382 0176 D161     		str	r1, [r2, #28]
 5383 0178 1062     		str	r0, [r2, #32]
 5384 017a D169     		ldr	r1, [r2, #28]
 5385 017c 21F00C01 		bic	r1, r1, #12
 5386 0180 D161     		str	r1, [r2, #28]
 5387 0182 D169     		ldr	r1, [r2, #28]
 5388 0184 2943     		orrs	r1, r1, r5
 5389 0186 D161     		str	r1, [r2, #28]
 5390 0188 8BE7     		b	.L1085
 5391              	.L1083:
 5392 018a 26F00306 		bic	r6, r6, #3
 5393 018e 3443     		orrs	r4, r4, r6
 5394              	.L1084:
 5395 0190 67F30714 		bfi	r4, r7, #4, #4
 5396 0194 9461     		str	r4, [r2, #24]
 5397 0196 00F00A00 		and	r0, r0, #10
 5398 019a 25F00A04 		bic	r4, r5, #10
 5399 019e 2043     		orrs	r0, r0, r4
 5400 01a0 1062     		str	r0, [r2, #32]
 5401 01a2 9069     		ldr	r0, [r2, #24]
 5402 01a4 8C68     		ldr	r4, [r1, #8]
 5403 01a6 20F00C00 		bic	r0, r0, #12
 5404 01aa 9061     		str	r0, [r2, #24]
 5405 01ac 9169     		ldr	r1, [r2, #24]
 5406 01ae 2143     		orrs	r1, r1, r4
 5407 01b0 9161     		str	r1, [r2, #24]
 5408 01b2 76E7     		b	.L1085
 5409              	.L1086:
 5410 01b4 0220     		movs	r0, #2
 5411 01b6 7047     		bx	lr
 5412              	.L1096:
 5413              		.align	2
 5414              	.L1095:
 5415 01b8 00000140 		.word	1073807360
 5417              		.section	.text.HAL_TIM_PWM_ConfigChannel,"ax",%progbits
 5418              		.align	1
 5419              		.p2align 2,,3
 5420              		.global	HAL_TIM_PWM_ConfigChannel
 5421              		.syntax unified
ARM GAS  /tmp/cc58c9Ir.s 			page 94


 5422              		.thumb
 5423              		.thumb_func
 5425              	HAL_TIM_PWM_ConfigChannel:
 5426              		@ args = 0, pretend = 0, frame = 0
 5427              		@ frame_needed = 0, uses_anonymous_args = 0
 5428 0000 90F83C30 		ldrb	r3, [r0, #60]	@ zero_extendqisi2
 5429 0004 012B     		cmp	r3, #1
 5430 0006 00F0DC80 		beq	.L1116
 5431 000a 0123     		movs	r3, #1
 5432 000c 70B5     		push	{r4, r5, r6, lr}
 5433 000e 8446     		mov	ip, r0
 5434 0010 80F83C30 		strb	r3, [r0, #60]
 5435 0014 0C2A     		cmp	r2, #12
 5436 0016 1DD8     		bhi	.L1117
 5437 0018 01A3     		adr	r3, .L1101
 5438 001a 53F822F0 		ldr	pc, [r3, r2, lsl #2]
 5439 001e 00BF     		.p2align 2
 5440              	.L1101:
 5441 0020 C3000000 		.word	.L1104+1
 5442 0024 55000000 		.word	.L1117+1
 5443 0028 55000000 		.word	.L1117+1
 5444 002c 55000000 		.word	.L1117+1
 5445 0030 17010000 		.word	.L1103+1
 5446 0034 55000000 		.word	.L1117+1
 5447 0038 55000000 		.word	.L1117+1
 5448 003c 55000000 		.word	.L1117+1
 5449 0040 6F010000 		.word	.L1102+1
 5450 0044 55000000 		.word	.L1117+1
 5451 0048 55000000 		.word	.L1117+1
 5452 004c 55000000 		.word	.L1117+1
 5453 0050 5F000000 		.word	.L1100+1
 5454              		.p2align 1
 5455              	.L1117:
 5456 0054 0023     		movs	r3, #0
 5457 0056 8CF83C30 		strb	r3, [ip, #60]
 5458 005a 0120     		movs	r0, #1
 5459 005c 70BD     		pop	{r4, r5, r6, pc}
 5460              	.L1100:
 5461 005e 0368     		ldr	r3, [r0]
 5462 0060 0D68     		ldr	r5, [r1]
 5463 0062 1A6A     		ldr	r2, [r3, #32]
 5464 0064 186A     		ldr	r0, [r3, #32]
 5465 0066 20F48050 		bic	r0, r0, #4096
 5466 006a 1862     		str	r0, [r3, #32]
 5467 006c 5C68     		ldr	r4, [r3, #4]
 5468 006e D869     		ldr	r0, [r3, #28]
 5469 0070 20F4E640 		bic	r0, r0, #29440
 5470 0074 40EA0520 		orr	r0, r0, r5, lsl #8
 5471 0078 8D68     		ldr	r5, [r1, #8]
 5472 007a 22F40052 		bic	r2, r2, #8192
 5473 007e 42EA0532 		orr	r2, r2, r5, lsl #12
 5474 0082 6B4D     		ldr	r5, .L1122
 5475 0084 AB42     		cmp	r3, r5
 5476 0086 00F0AE80 		beq	.L1114
 5477 008a 05F58065 		add	r5, r5, #1024
 5478 008e AB42     		cmp	r3, r5
 5479 0090 00F0A980 		beq	.L1114
ARM GAS  /tmp/cc58c9Ir.s 			page 95


 5480              	.L1115:
 5481 0094 5C60     		str	r4, [r3, #4]
 5482 0096 D861     		str	r0, [r3, #28]
 5483 0098 4868     		ldr	r0, [r1, #4]
 5484 009a 1864     		str	r0, [r3, #64]
 5485 009c 1A62     		str	r2, [r3, #32]
 5486 009e DA69     		ldr	r2, [r3, #28]
 5487 00a0 0969     		ldr	r1, [r1, #16]
 5488 00a2 42F40062 		orr	r2, r2, #2048
 5489 00a6 DA61     		str	r2, [r3, #28]
 5490 00a8 DA69     		ldr	r2, [r3, #28]
 5491 00aa 22F48062 		bic	r2, r2, #1024
 5492 00ae DA61     		str	r2, [r3, #28]
 5493 00b0 DA69     		ldr	r2, [r3, #28]
 5494 00b2 42EA0122 		orr	r2, r2, r1, lsl #8
 5495 00b6 DA61     		str	r2, [r3, #28]
 5496              	.L1107:
 5497 00b8 0023     		movs	r3, #0
 5498 00ba 8CF83C30 		strb	r3, [ip, #60]
 5499 00be 0020     		movs	r0, #0
 5500 00c0 70BD     		pop	{r4, r5, r6, pc}
 5501              	.L1104:
 5502 00c2 0368     		ldr	r3, [r0]
 5503 00c4 0D68     		ldr	r5, [r1]
 5504 00c6 1A6A     		ldr	r2, [r3, #32]
 5505 00c8 186A     		ldr	r0, [r3, #32]
 5506 00ca 20F00100 		bic	r0, r0, #1
 5507 00ce 1862     		str	r0, [r3, #32]
 5508 00d0 5C68     		ldr	r4, [r3, #4]
 5509 00d2 9869     		ldr	r0, [r3, #24]
 5510 00d4 20F07300 		bic	r0, r0, #115
 5511 00d8 2843     		orrs	r0, r0, r5
 5512 00da 8D68     		ldr	r5, [r1, #8]
 5513 00dc 22F00202 		bic	r2, r2, #2
 5514 00e0 2A43     		orrs	r2, r2, r5
 5515 00e2 534D     		ldr	r5, .L1122
 5516 00e4 AB42     		cmp	r3, r5
 5517 00e6 00F08480 		beq	.L1105
 5518 00ea 05F58065 		add	r5, r5, #1024
 5519 00ee AB42     		cmp	r3, r5
 5520 00f0 7FD0     		beq	.L1105
 5521              	.L1106:
 5522 00f2 5C60     		str	r4, [r3, #4]
 5523 00f4 9861     		str	r0, [r3, #24]
 5524 00f6 4868     		ldr	r0, [r1, #4]
 5525 00f8 5863     		str	r0, [r3, #52]
 5526 00fa 1A62     		str	r2, [r3, #32]
 5527 00fc 9A69     		ldr	r2, [r3, #24]
 5528 00fe 0969     		ldr	r1, [r1, #16]
 5529 0100 42F00802 		orr	r2, r2, #8
 5530 0104 9A61     		str	r2, [r3, #24]
 5531 0106 9A69     		ldr	r2, [r3, #24]
 5532 0108 22F00402 		bic	r2, r2, #4
 5533 010c 9A61     		str	r2, [r3, #24]
 5534 010e 9A69     		ldr	r2, [r3, #24]
 5535 0110 0A43     		orrs	r2, r2, r1
 5536 0112 9A61     		str	r2, [r3, #24]
ARM GAS  /tmp/cc58c9Ir.s 			page 96


 5537 0114 D0E7     		b	.L1107
 5538              	.L1103:
 5539 0116 0368     		ldr	r3, [r0]
 5540 0118 0D68     		ldr	r5, [r1]
 5541 011a 1A6A     		ldr	r2, [r3, #32]
 5542 011c 186A     		ldr	r0, [r3, #32]
 5543 011e 20F01000 		bic	r0, r0, #16
 5544 0122 1862     		str	r0, [r3, #32]
 5545 0124 5C68     		ldr	r4, [r3, #4]
 5546 0126 9869     		ldr	r0, [r3, #24]
 5547 0128 20F4E640 		bic	r0, r0, #29440
 5548 012c 40EA0520 		orr	r0, r0, r5, lsl #8
 5549 0130 8D68     		ldr	r5, [r1, #8]
 5550 0132 22F02002 		bic	r2, r2, #32
 5551 0136 42EA0512 		orr	r2, r2, r5, lsl #4
 5552 013a 3D4D     		ldr	r5, .L1122
 5553 013c AB42     		cmp	r3, r5
 5554 013e 67D0     		beq	.L1108
 5555 0140 05F58065 		add	r5, r5, #1024
 5556 0144 AB42     		cmp	r3, r5
 5557 0146 63D0     		beq	.L1108
 5558              	.L1109:
 5559 0148 5C60     		str	r4, [r3, #4]
 5560 014a 9861     		str	r0, [r3, #24]
 5561 014c 4868     		ldr	r0, [r1, #4]
 5562 014e 9863     		str	r0, [r3, #56]
 5563 0150 1A62     		str	r2, [r3, #32]
 5564 0152 9A69     		ldr	r2, [r3, #24]
 5565 0154 0969     		ldr	r1, [r1, #16]
 5566 0156 42F40062 		orr	r2, r2, #2048
 5567 015a 9A61     		str	r2, [r3, #24]
 5568 015c 9A69     		ldr	r2, [r3, #24]
 5569 015e 22F48062 		bic	r2, r2, #1024
 5570 0162 9A61     		str	r2, [r3, #24]
 5571 0164 9A69     		ldr	r2, [r3, #24]
 5572 0166 42EA0122 		orr	r2, r2, r1, lsl #8
 5573 016a 9A61     		str	r2, [r3, #24]
 5574 016c A4E7     		b	.L1107
 5575              	.L1102:
 5576 016e 0368     		ldr	r3, [r0]
 5577 0170 0D68     		ldr	r5, [r1]
 5578 0172 1A6A     		ldr	r2, [r3, #32]
 5579 0174 186A     		ldr	r0, [r3, #32]
 5580 0176 20F48070 		bic	r0, r0, #256
 5581 017a 1862     		str	r0, [r3, #32]
 5582 017c 5C68     		ldr	r4, [r3, #4]
 5583 017e D869     		ldr	r0, [r3, #28]
 5584 0180 20F07300 		bic	r0, r0, #115
 5585 0184 2843     		orrs	r0, r0, r5
 5586 0186 8D68     		ldr	r5, [r1, #8]
 5587 0188 22F40072 		bic	r2, r2, #512
 5588 018c 42EA0522 		orr	r2, r2, r5, lsl #8
 5589 0190 274D     		ldr	r5, .L1122
 5590 0192 AB42     		cmp	r3, r5
 5591 0194 17D0     		beq	.L1111
 5592 0196 05F58065 		add	r5, r5, #1024
 5593 019a AB42     		cmp	r3, r5
ARM GAS  /tmp/cc58c9Ir.s 			page 97


 5594 019c 13D0     		beq	.L1111
 5595              	.L1112:
 5596 019e 5C60     		str	r4, [r3, #4]
 5597 01a0 D861     		str	r0, [r3, #28]
 5598 01a2 4868     		ldr	r0, [r1, #4]
 5599 01a4 D863     		str	r0, [r3, #60]
 5600 01a6 1A62     		str	r2, [r3, #32]
 5601 01a8 DA69     		ldr	r2, [r3, #28]
 5602 01aa 0969     		ldr	r1, [r1, #16]
 5603 01ac 42F00802 		orr	r2, r2, #8
 5604 01b0 DA61     		str	r2, [r3, #28]
 5605 01b2 DA69     		ldr	r2, [r3, #28]
 5606 01b4 22F00402 		bic	r2, r2, #4
 5607 01b8 DA61     		str	r2, [r3, #28]
 5608 01ba DA69     		ldr	r2, [r3, #28]
 5609 01bc 0A43     		orrs	r2, r2, r1
 5610 01be DA61     		str	r2, [r3, #28]
 5611 01c0 7AE7     		b	.L1107
 5612              	.L1116:
 5613 01c2 0220     		movs	r0, #2
 5614 01c4 7047     		bx	lr
 5615              	.L1111:
 5616 01c6 CD68     		ldr	r5, [r1, #12]
 5617 01c8 22F40062 		bic	r2, r2, #2048
 5618 01cc 42EA0522 		orr	r2, r2, r5, lsl #8
 5619 01d0 D1E90565 		ldrd	r6, r5, [r1, #20]
 5620 01d4 24F44054 		bic	r4, r4, #12288
 5621 01d8 46EA050E 		orr	lr, r6, r5
 5622 01dc 22F48062 		bic	r2, r2, #1024
 5623 01e0 44EA0E14 		orr	r4, r4, lr, lsl #4
 5624 01e4 DBE7     		b	.L1112
 5625              	.L1114:
 5626 01e6 4D69     		ldr	r5, [r1, #20]
 5627 01e8 24F48044 		bic	r4, r4, #16384
 5628 01ec 44EA8514 		orr	r4, r4, r5, lsl #6
 5629 01f0 50E7     		b	.L1115
 5630              	.L1105:
 5631 01f2 CD68     		ldr	r5, [r1, #12]
 5632 01f4 22F00802 		bic	r2, r2, #8
 5633 01f8 2A43     		orrs	r2, r2, r5
 5634 01fa D1E90565 		ldrd	r6, r5, [r1, #20]
 5635 01fe 24F44074 		bic	r4, r4, #768
 5636 0202 46EA050E 		orr	lr, r6, r5
 5637 0206 22F00402 		bic	r2, r2, #4
 5638 020a 4EEA0404 		orr	r4, lr, r4
 5639 020e 70E7     		b	.L1106
 5640              	.L1108:
 5641 0210 CD68     		ldr	r5, [r1, #12]
 5642 0212 22F08002 		bic	r2, r2, #128
 5643 0216 42EA0512 		orr	r2, r2, r5, lsl #4
 5644 021a D1E90565 		ldrd	r6, r5, [r1, #20]
 5645 021e 24F44064 		bic	r4, r4, #3072
 5646 0222 46EA050E 		orr	lr, r6, r5
 5647 0226 22F04002 		bic	r2, r2, #64
 5648 022a 44EA8E04 		orr	r4, r4, lr, lsl #2
 5649 022e 8BE7     		b	.L1109
 5650              	.L1123:
ARM GAS  /tmp/cc58c9Ir.s 			page 98


 5651              		.align	2
 5652              	.L1122:
 5653 0230 00000140 		.word	1073807360
 5655              		.section	.text.HAL_TIM_OnePulse_ConfigChannel,"ax",%progbits
 5656              		.align	1
 5657              		.p2align 2,,3
 5658              		.global	HAL_TIM_OnePulse_ConfigChannel
 5659              		.syntax unified
 5660              		.thumb
 5661              		.thumb_func
 5663              	HAL_TIM_OnePulse_ConfigChannel:
 5664              		@ args = 0, pretend = 0, frame = 0
 5665              		@ frame_needed = 0, uses_anonymous_args = 0
 5666 0000 9A42     		cmp	r2, r3
 5667 0002 00F0BE80 		beq	.L1142
 5668 0006 8446     		mov	ip, r0
 5669 0008 90F83C00 		ldrb	r0, [r0, #60]	@ zero_extendqisi2
 5670 000c 0128     		cmp	r0, #1
 5671 000e 00F0D380 		beq	.L1143
 5672 0012 0120     		movs	r0, #1
 5673 0014 2DE9F047 		push	{r4, r5, r6, r7, r8, r9, r10, lr}
 5674 0018 8CF83C00 		strb	r0, [ip, #60]
 5675 001c 0220     		movs	r0, #2
 5676 001e 8CF83D00 		strb	r0, [ip, #61]
 5677 0022 D1E90087 		ldrd	r8, r7, [r1]
 5678 0026 D1E9020E 		ldrd	r0, lr, [r1, #8]
 5679 002a D1E90456 		ldrd	r5, r6, [r1, #16]
 5680 002e 002A     		cmp	r2, #0
 5681 0030 54D0     		beq	.L1126
 5682 0032 042A     		cmp	r2, #4
 5683 0034 40F09C80 		bne	.L1138
 5684 0038 DCF80020 		ldr	r2, [ip]
 5685 003c DFF8ACA1 		ldr	r10, .L1153
 5686 0040 146A     		ldr	r4, [r2, #32]
 5687 0042 24F02004 		bic	r4, r4, #32
 5688 0046 44EA0014 		orr	r4, r4, r0, lsl #4
 5689 004a 106A     		ldr	r0, [r2, #32]
 5690 004c 20F01000 		bic	r0, r0, #16
 5691 0050 1062     		str	r0, [r2, #32]
 5692 0052 D2F80490 		ldr	r9, [r2, #4]
 5693 0056 9069     		ldr	r0, [r2, #24]
 5694 0058 5245     		cmp	r2, r10
 5695 005a 20F4E640 		bic	r0, r0, #29440
 5696 005e 40EA0820 		orr	r0, r0, r8, lsl #8
 5697 0062 00F09080 		beq	.L1133
 5698 0066 DFF88881 		ldr	r8, .L1153+4
 5699 006a 4245     		cmp	r2, r8
 5700 006c 00F08B80 		beq	.L1133
 5701              	.L1134:
 5702 0070 C2F80490 		str	r9, [r2, #4]
 5703 0074 9061     		str	r0, [r2, #24]
 5704 0076 9763     		str	r7, [r2, #56]
 5705 0078 1462     		str	r4, [r2, #32]
 5706 007a 002B     		cmp	r3, #0
 5707 007c 4ED0     		beq	.L1136
 5708              	.L1152:
 5709 007e 042B     		cmp	r3, #4
ARM GAS  /tmp/cc58c9Ir.s 			page 99


 5710 0080 76D1     		bne	.L1138
 5711 0082 D1E90634 		ldrd	r3, r4, [r1, #24]
 5712 0086 086A     		ldr	r0, [r1, #32]
 5713 0088 116A     		ldr	r1, [r2, #32]
 5714 008a 1B01     		lsls	r3, r3, #4
 5715 008c 21F0A001 		bic	r1, r1, #160
 5716 0090 03F0A003 		and	r3, r3, #160
 5717 0094 0B43     		orrs	r3, r3, r1
 5718 0096 116A     		ldr	r1, [r2, #32]
 5719 0098 21F01001 		bic	r1, r1, #16
 5720 009c 1162     		str	r1, [r2, #32]
 5721 009e 9169     		ldr	r1, [r2, #24]
 5722 00a0 21F44071 		bic	r1, r1, #768
 5723 00a4 41EA0421 		orr	r1, r1, r4, lsl #8
 5724 00a8 60F30F31 		bfi	r1, r0, #12, #4
 5725 00ac 9161     		str	r1, [r2, #24]
 5726 00ae 1362     		str	r3, [r2, #32]
 5727 00b0 9369     		ldr	r3, [r2, #24]
 5728 00b2 23F44063 		bic	r3, r3, #3072
 5729 00b6 9361     		str	r3, [r2, #24]
 5730 00b8 9368     		ldr	r3, [r2, #8]
 5731 00ba 23F07003 		bic	r3, r3, #112
 5732 00be 9360     		str	r3, [r2, #8]
 5733 00c0 9368     		ldr	r3, [r2, #8]
 5734 00c2 43F06003 		orr	r3, r3, #96
 5735              	.L1151:
 5736 00c6 9360     		str	r3, [r2, #8]
 5737 00c8 9368     		ldr	r3, [r2, #8]
 5738 00ca 23F00703 		bic	r3, r3, #7
 5739 00ce 9360     		str	r3, [r2, #8]
 5740 00d0 9368     		ldr	r3, [r2, #8]
 5741 00d2 43F00603 		orr	r3, r3, #6
 5742 00d6 9360     		str	r3, [r2, #8]
 5743 00d8 0020     		movs	r0, #0
 5744 00da 4AE0     		b	.L1128
 5745              	.L1126:
 5746 00dc DCF80020 		ldr	r2, [ip]
 5747 00e0 DFF80891 		ldr	r9, .L1153
 5748 00e4 146A     		ldr	r4, [r2, #32]
 5749 00e6 24F00204 		bic	r4, r4, #2
 5750 00ea 2043     		orrs	r0, r0, r4
 5751 00ec 146A     		ldr	r4, [r2, #32]
 5752 00ee 24F00104 		bic	r4, r4, #1
 5753 00f2 1462     		str	r4, [r2, #32]
 5754 00f4 D2F804A0 		ldr	r10, [r2, #4]
 5755 00f8 9469     		ldr	r4, [r2, #24]
 5756 00fa 4A45     		cmp	r2, r9
 5757 00fc 24F07304 		bic	r4, r4, #115
 5758 0100 48EA0404 		orr	r4, r8, r4
 5759 0104 4CD0     		beq	.L1129
 5760 0106 DFF8E880 		ldr	r8, .L1153+4
 5761 010a 4245     		cmp	r2, r8
 5762 010c 48D0     		beq	.L1129
 5763              	.L1130:
 5764 010e C2F804A0 		str	r10, [r2, #4]
 5765 0112 9461     		str	r4, [r2, #24]
 5766 0114 5763     		str	r7, [r2, #52]
ARM GAS  /tmp/cc58c9Ir.s 			page 100


 5767 0116 1062     		str	r0, [r2, #32]
 5768 0118 002B     		cmp	r3, #0
 5769 011a B0D1     		bne	.L1152
 5770              	.L1136:
 5771 011c 146A     		ldr	r4, [r2, #32]
 5772 011e 0D6A     		ldr	r5, [r1, #32]
 5773 0120 324E     		ldr	r6, .L1153
 5774 0122 D1E90630 		ldrd	r3, r0, [r1, #24]
 5775 0126 116A     		ldr	r1, [r2, #32]
 5776 0128 21F00101 		bic	r1, r1, #1
 5777 012c 1162     		str	r1, [r2, #32]
 5778 012e B242     		cmp	r2, r6
 5779 0130 9169     		ldr	r1, [r2, #24]
 5780 0132 43D0     		beq	.L1139
 5781 0134 B2F1804F 		cmp	r2, #1073741824
 5782 0138 40D0     		beq	.L1139
 5783 013a A6F57C46 		sub	r6, r6, #64512
 5784 013e B242     		cmp	r2, r6
 5785 0140 3CD0     		beq	.L1139
 5786 0142 06F58066 		add	r6, r6, #1024
 5787 0146 B242     		cmp	r2, r6
 5788 0148 38D0     		beq	.L1139
 5789 014a 06F58066 		add	r6, r6, #1024
 5790 014e B242     		cmp	r2, r6
 5791 0150 34D0     		beq	.L1139
 5792 0152 06F57846 		add	r6, r6, #63488
 5793 0156 B242     		cmp	r2, r6
 5794 0158 30D0     		beq	.L1139
 5795 015a 06F57056 		add	r6, r6, #15360
 5796 015e B242     		cmp	r2, r6
 5797 0160 2CD0     		beq	.L1139
 5798 0162 A6F59436 		sub	r6, r6, #75776
 5799 0166 B242     		cmp	r2, r6
 5800 0168 28D0     		beq	.L1139
 5801 016a 41F00101 		orr	r1, r1, #1
 5802 016e 28E0     		b	.L1140
 5803              	.L1138:
 5804 0170 0120     		movs	r0, #1
 5805              	.L1128:
 5806 0172 0122     		movs	r2, #1
 5807 0174 0023     		movs	r3, #0
 5808 0176 8CF83D20 		strb	r2, [ip, #61]
 5809 017a 8CF83C30 		strb	r3, [ip, #60]
 5810 017e BDE8F087 		pop	{r4, r5, r6, r7, r8, r9, r10, pc}
 5811              	.L1142:
 5812 0182 0120     		movs	r0, #1
 5813 0184 7047     		bx	lr
 5814              	.L1133:
 5815 0186 24F08004 		bic	r4, r4, #128
 5816 018a 44EA0E14 		orr	r4, r4, lr, lsl #4
 5817 018e 29F44069 		bic	r9, r9, #3072
 5818 0192 45EA060E 		orr	lr, r5, r6
 5819 0196 24F04004 		bic	r4, r4, #64
 5820 019a 49EA8E09 		orr	r9, r9, lr, lsl #2
 5821 019e 67E7     		b	.L1134
 5822              	.L1129:
 5823 01a0 20F00800 		bic	r0, r0, #8
ARM GAS  /tmp/cc58c9Ir.s 			page 101


 5824 01a4 2E43     		orrs	r6, r6, r5
 5825 01a6 4EEA0000 		orr	r0, lr, r0
 5826 01aa 2AF4407A 		bic	r10, r10, #768
 5827 01ae 46EA0A0A 		orr	r10, r6, r10
 5828 01b2 20F00400 		bic	r0, r0, #4
 5829 01b6 AAE7     		b	.L1130
 5830              	.L1143:
 5831 01b8 0220     		movs	r0, #2
 5832 01ba 7047     		bx	lr
 5833              	.L1139:
 5834 01bc 21F00301 		bic	r1, r1, #3
 5835 01c0 0143     		orrs	r1, r1, r0
 5836              	.L1140:
 5837 01c2 24F00A00 		bic	r0, r4, #10
 5838 01c6 03F00A03 		and	r3, r3, #10
 5839 01ca 0343     		orrs	r3, r3, r0
 5840 01cc 65F30711 		bfi	r1, r5, #4, #4
 5841 01d0 9161     		str	r1, [r2, #24]
 5842 01d2 1362     		str	r3, [r2, #32]
 5843 01d4 9369     		ldr	r3, [r2, #24]
 5844 01d6 23F00C03 		bic	r3, r3, #12
 5845 01da 9361     		str	r3, [r2, #24]
 5846 01dc 9368     		ldr	r3, [r2, #8]
 5847 01de 23F07003 		bic	r3, r3, #112
 5848 01e2 9360     		str	r3, [r2, #8]
 5849 01e4 9368     		ldr	r3, [r2, #8]
 5850 01e6 43F05003 		orr	r3, r3, #80
 5851 01ea 6CE7     		b	.L1151
 5852              	.L1154:
 5853              		.align	2
 5854              	.L1153:
 5855 01ec 00000140 		.word	1073807360
 5856 01f0 00040140 		.word	1073808384
 5858              		.section	.text.HAL_TIM_DMABurst_WriteStart,"ax",%progbits
 5859              		.align	1
 5860              		.p2align 2,,3
 5861              		.global	HAL_TIM_DMABurst_WriteStart
 5862              		.syntax unified
 5863              		.thumb
 5864              		.thumb_func
 5866              	HAL_TIM_DMABurst_WriteStart:
 5867              		@ args = 4, pretend = 0, frame = 0
 5868              		@ frame_needed = 0, uses_anonymous_args = 0
 5869 0000 F8B5     		push	{r3, r4, r5, r6, r7, lr}
 5870 0002 1546     		mov	r5, r2
 5871 0004 90F84620 		ldrb	r2, [r0, #70]	@ zero_extendqisi2
 5872 0008 069F     		ldr	r7, [sp, #24]
 5873 000a 022A     		cmp	r2, #2
 5874 000c 0446     		mov	r4, r0
 5875 000e D0B2     		uxtb	r0, r2
 5876 0010 2FD0     		beq	.L1156
 5877 0012 94F84620 		ldrb	r2, [r4, #70]	@ zero_extendqisi2
 5878 0016 0E46     		mov	r6, r1
 5879 0018 012A     		cmp	r2, #1
 5880 001a 1946     		mov	r1, r3
 5881 001c 4FEA1723 		lsr	r3, r7, #8
 5882 0020 03F10103 		add	r3, r3, #1
ARM GAS  /tmp/cc58c9Ir.s 			page 102


 5883 0024 39D0     		beq	.L1179
 5884 0026 B5F5006F 		cmp	r5, #2048
 5885 002a 3DD0     		beq	.L1160
 5886              	.L1181:
 5887 002c 22D8     		bhi	.L1161
 5888 002e B5F5007F 		cmp	r5, #512
 5889 0032 4BD0     		beq	.L1162
 5890 0034 B5F5806F 		cmp	r5, #1024
 5891 0038 42D0     		beq	.L1163
 5892 003a B5F5807F 		cmp	r5, #256
 5893 003e 43D1     		bne	.L1159
 5894 0040 206A     		ldr	r0, [r4, #32]
 5895 0042 2268     		ldr	r2, [r4]
 5896 0044 DFF89CC0 		ldr	ip, .L1182
 5897 0048 C0F83CC0 		str	ip, [r0, #60]
 5898 004c DFF898C0 		ldr	ip, .L1182+4
 5899 0050 4C32     		adds	r2, r2, #76
 5900              	.L1177:
 5901 0052 C0F840C0 		str	ip, [r0, #64]
 5902 0056 DFF894C0 		ldr	ip, .L1182+8
 5903 005a C0F84CC0 		str	ip, [r0, #76]
 5904 005e FFF7FEFF 		bl	HAL_DMA_Start_IT
 5905 0062 88BB     		cbnz	r0, .L1159
 5906 0064 2368     		ldr	r3, [r4]
 5907 0066 3E43     		orrs	r6, r6, r7
 5908 0068 9E64     		str	r6, [r3, #72]
 5909 006a DA68     		ldr	r2, [r3, #12]
 5910 006c 2A43     		orrs	r2, r2, r5
 5911 006e 0020     		movs	r0, #0
 5912 0070 DA60     		str	r2, [r3, #12]
 5913              	.L1156:
 5914 0072 F8BD     		pop	{r3, r4, r5, r6, r7, pc}
 5915              	.L1161:
 5916 0074 B5F5005F 		cmp	r5, #8192
 5917 0078 2AD0     		beq	.L1165
 5918 007a B5F5804F 		cmp	r5, #16384
 5919 007e 15D0     		beq	.L1166
 5920 0080 B5F5805F 		cmp	r5, #4096
 5921 0084 20D1     		bne	.L1159
 5922 0086 206B     		ldr	r0, [r4, #48]
 5923              	.L1178:
 5924 0088 2268     		ldr	r2, [r4]
 5925 008a DFF864C0 		ldr	ip, .L1182+12
 5926 008e C0F83CC0 		str	ip, [r0, #60]
 5927 0092 4C32     		adds	r2, r2, #76
 5928 0094 DFF85CC0 		ldr	ip, .L1182+16
 5929 0098 DBE7     		b	.L1177
 5930              	.L1179:
 5931 009a 99B1     		cbz	r1, .L1180
 5932              	.L1158:
 5933 009c 0222     		movs	r2, #2
 5934 009e B5F5006F 		cmp	r5, #2048
 5935 00a2 84F84620 		strb	r2, [r4, #70]
 5936 00a6 C1D1     		bne	.L1181
 5937              	.L1160:
 5938 00a8 E06A     		ldr	r0, [r4, #44]
 5939 00aa EDE7     		b	.L1178
ARM GAS  /tmp/cc58c9Ir.s 			page 103


 5940              	.L1166:
 5941 00ac 2268     		ldr	r2, [r4]
 5942 00ae A06B     		ldr	r0, [r4, #56]
 5943 00b0 DFF844C0 		ldr	ip, .L1182+20
 5944 00b4 C0F83CC0 		str	ip, [r0, #60]
 5945 00b8 4C32     		adds	r2, r2, #76
 5946 00ba DFF840C0 		ldr	ip, .L1182+24
 5947 00be C8E7     		b	.L1177
 5948              	.L1163:
 5949 00c0 A06A     		ldr	r0, [r4, #40]
 5950 00c2 E1E7     		b	.L1178
 5951              	.L1180:
 5952 00c4 002F     		cmp	r7, #0
 5953 00c6 E9D0     		beq	.L1158
 5954              	.L1159:
 5955 00c8 0120     		movs	r0, #1
 5956 00ca F8BD     		pop	{r3, r4, r5, r6, r7, pc}
 5957              	.L1162:
 5958 00cc 606A     		ldr	r0, [r4, #36]
 5959 00ce DBE7     		b	.L1178
 5960              	.L1165:
 5961 00d0 2268     		ldr	r2, [r4]
 5962 00d2 606B     		ldr	r0, [r4, #52]
 5963 00d4 DFF828C0 		ldr	ip, .L1182+28
 5964 00d8 C0F83CC0 		str	ip, [r0, #60]
 5965 00dc 4C32     		adds	r2, r2, #76
 5966 00de DFF824C0 		ldr	ip, .L1182+32
 5967 00e2 B6E7     		b	.L1177
 5968              	.L1183:
 5969              		.align	2
 5970              	.L1182:
 5971 00e4 00000000 		.word	TIM_DMAPeriodElapsedCplt
 5972 00e8 00000000 		.word	TIM_DMAPeriodElapsedHalfCplt
 5973 00ec 00000000 		.word	TIM_DMAError
 5974 00f0 00000000 		.word	TIM_DMADelayPulseCplt
 5975 00f4 00000000 		.word	TIM_DMADelayPulseHalfCplt
 5976 00f8 00000000 		.word	TIM_DMATriggerCplt
 5977 00fc 00000000 		.word	TIM_DMATriggerHalfCplt
 5978 0100 00000000 		.word	TIMEx_DMACommutationCplt
 5979 0104 00000000 		.word	TIMEx_DMACommutationHalfCplt
 5981              		.section	.text.HAL_TIM_DMABurst_MultiWriteStart,"ax",%progbits
 5982              		.align	1
 5983              		.p2align 2,,3
 5984              		.global	HAL_TIM_DMABurst_MultiWriteStart
 5985              		.syntax unified
 5986              		.thumb
 5987              		.thumb_func
 5989              	HAL_TIM_DMABurst_MultiWriteStart:
 5990              		@ args = 8, pretend = 0, frame = 0
 5991              		@ frame_needed = 0, uses_anonymous_args = 0
 5992 0000 70B5     		push	{r4, r5, r6, lr}
 5993 0002 90F846C0 		ldrb	ip, [r0, #70]	@ zero_extendqisi2
 5994 0006 BCF1020F 		cmp	ip, #2
 5995 000a 0446     		mov	r4, r0
 5996 000c 5FFA8CF0 		uxtb	r0, ip
 5997 0010 29D0     		beq	.L1185
 5998 0012 0E46     		mov	r6, r1
ARM GAS  /tmp/cc58c9Ir.s 			page 104


 5999 0014 1946     		mov	r1, r3
 6000 0016 94F84630 		ldrb	r3, [r4, #70]	@ zero_extendqisi2
 6001 001a 012B     		cmp	r3, #1
 6002 001c 1546     		mov	r5, r2
 6003 001e 33D0     		beq	.L1208
 6004 0020 B5F5006F 		cmp	r5, #2048
 6005 0024 37D0     		beq	.L1189
 6006              	.L1210:
 6007 0026 1FD8     		bhi	.L1190
 6008 0028 B5F5007F 		cmp	r5, #512
 6009 002c 43D0     		beq	.L1191
 6010 002e B5F5806F 		cmp	r5, #1024
 6011 0032 39D0     		beq	.L1192
 6012 0034 B5F5807F 		cmp	r5, #256
 6013 0038 3BD1     		bne	.L1188
 6014 003a 206A     		ldr	r0, [r4, #32]
 6015 003c 2268     		ldr	r2, [r4]
 6016 003e 224B     		ldr	r3, .L1211
 6017 0040 C363     		str	r3, [r0, #60]
 6018 0042 224B     		ldr	r3, .L1211+4
 6019 0044 4C32     		adds	r2, r2, #76
 6020              	.L1206:
 6021 0046 0364     		str	r3, [r0, #64]
 6022 0048 214B     		ldr	r3, .L1211+8
 6023 004a C364     		str	r3, [r0, #76]
 6024 004c 059B     		ldr	r3, [sp, #20]
 6025 004e FFF7FEFF 		bl	HAL_DMA_Start_IT
 6026 0052 0028     		cmp	r0, #0
 6027 0054 2DD1     		bne	.L1188
 6028 0056 049A     		ldr	r2, [sp, #16]
 6029 0058 2368     		ldr	r3, [r4]
 6030 005a 1643     		orrs	r6, r6, r2
 6031 005c 9E64     		str	r6, [r3, #72]
 6032 005e DA68     		ldr	r2, [r3, #12]
 6033 0060 2A43     		orrs	r2, r2, r5
 6034 0062 0020     		movs	r0, #0
 6035 0064 DA60     		str	r2, [r3, #12]
 6036              	.L1185:
 6037 0066 70BD     		pop	{r4, r5, r6, pc}
 6038              	.L1190:
 6039 0068 B5F5005F 		cmp	r5, #8192
 6040 006c 25D0     		beq	.L1194
 6041 006e B5F5804F 		cmp	r5, #16384
 6042 0072 12D0     		beq	.L1195
 6043 0074 B5F5805F 		cmp	r5, #4096
 6044 0078 1BD1     		bne	.L1188
 6045 007a 206B     		ldr	r0, [r4, #48]
 6046              	.L1207:
 6047 007c 2268     		ldr	r2, [r4]
 6048 007e 154B     		ldr	r3, .L1211+12
 6049 0080 C363     		str	r3, [r0, #60]
 6050 0082 4C32     		adds	r2, r2, #76
 6051 0084 144B     		ldr	r3, .L1211+16
 6052 0086 DEE7     		b	.L1206
 6053              	.L1208:
 6054 0088 81B1     		cbz	r1, .L1209
 6055              	.L1187:
ARM GAS  /tmp/cc58c9Ir.s 			page 105


 6056 008a 0223     		movs	r3, #2
 6057 008c B5F5006F 		cmp	r5, #2048
 6058 0090 84F84630 		strb	r3, [r4, #70]
 6059 0094 C7D1     		bne	.L1210
 6060              	.L1189:
 6061 0096 E06A     		ldr	r0, [r4, #44]
 6062 0098 F0E7     		b	.L1207
 6063              	.L1195:
 6064 009a 2268     		ldr	r2, [r4]
 6065 009c A06B     		ldr	r0, [r4, #56]
 6066 009e 0F4B     		ldr	r3, .L1211+20
 6067 00a0 C363     		str	r3, [r0, #60]
 6068 00a2 4C32     		adds	r2, r2, #76
 6069 00a4 0E4B     		ldr	r3, .L1211+24
 6070 00a6 CEE7     		b	.L1206
 6071              	.L1192:
 6072 00a8 A06A     		ldr	r0, [r4, #40]
 6073 00aa E7E7     		b	.L1207
 6074              	.L1209:
 6075 00ac 049B     		ldr	r3, [sp, #16]
 6076 00ae 002B     		cmp	r3, #0
 6077 00b0 EBD0     		beq	.L1187
 6078              	.L1188:
 6079 00b2 0120     		movs	r0, #1
 6080 00b4 70BD     		pop	{r4, r5, r6, pc}
 6081              	.L1191:
 6082 00b6 606A     		ldr	r0, [r4, #36]
 6083 00b8 E0E7     		b	.L1207
 6084              	.L1194:
 6085 00ba 2268     		ldr	r2, [r4]
 6086 00bc 606B     		ldr	r0, [r4, #52]
 6087 00be 094B     		ldr	r3, .L1211+28
 6088 00c0 C363     		str	r3, [r0, #60]
 6089 00c2 4C32     		adds	r2, r2, #76
 6090 00c4 084B     		ldr	r3, .L1211+32
 6091 00c6 BEE7     		b	.L1206
 6092              	.L1212:
 6093              		.align	2
 6094              	.L1211:
 6095 00c8 00000000 		.word	TIM_DMAPeriodElapsedCplt
 6096 00cc 00000000 		.word	TIM_DMAPeriodElapsedHalfCplt
 6097 00d0 00000000 		.word	TIM_DMAError
 6098 00d4 00000000 		.word	TIM_DMADelayPulseCplt
 6099 00d8 00000000 		.word	TIM_DMADelayPulseHalfCplt
 6100 00dc 00000000 		.word	TIM_DMATriggerCplt
 6101 00e0 00000000 		.word	TIM_DMATriggerHalfCplt
 6102 00e4 00000000 		.word	TIMEx_DMACommutationCplt
 6103 00e8 00000000 		.word	TIMEx_DMACommutationHalfCplt
 6105              		.section	.text.HAL_TIM_DMABurst_WriteStop,"ax",%progbits
 6106              		.align	1
 6107              		.p2align 2,,3
 6108              		.global	HAL_TIM_DMABurst_WriteStop
 6109              		.syntax unified
 6110              		.thumb
 6111              		.thumb_func
 6113              	HAL_TIM_DMABurst_WriteStop:
 6114              		@ args = 0, pretend = 0, frame = 0
ARM GAS  /tmp/cc58c9Ir.s 			page 106


 6115              		@ frame_needed = 0, uses_anonymous_args = 0
 6116 0000 B1F5006F 		cmp	r1, #2048
 6117 0004 38B5     		push	{r3, r4, r5, lr}
 6118 0006 0C46     		mov	r4, r1
 6119 0008 0546     		mov	r5, r0
 6120 000a 2FD0     		beq	.L1214
 6121 000c 15D8     		bhi	.L1215
 6122 000e B1F5007F 		cmp	r1, #512
 6123 0012 27D0     		beq	.L1216
 6124 0014 B1F5806F 		cmp	r1, #1024
 6125 0018 20D0     		beq	.L1217
 6126 001a B1F5807F 		cmp	r1, #256
 6127 001e 29D1     		bne	.L1225
 6128 0020 006A     		ldr	r0, [r0, #32]
 6129 0022 FFF7FEFF 		bl	HAL_DMA_Abort_IT
 6130              	.L1223:
 6131 0026 2A68     		ldr	r2, [r5]
 6132 0028 D368     		ldr	r3, [r2, #12]
 6133 002a 0121     		movs	r1, #1
 6134 002c 23EA0403 		bic	r3, r3, r4
 6135 0030 D360     		str	r3, [r2, #12]
 6136 0032 85F84610 		strb	r1, [r5, #70]
 6137 0036 0020     		movs	r0, #0
 6138 0038 38BD     		pop	{r3, r4, r5, pc}
 6139              	.L1215:
 6140 003a B1F5005F 		cmp	r1, #8192
 6141 003e 1BD0     		beq	.L1220
 6142 0040 B1F5804F 		cmp	r1, #16384
 6143 0044 06D0     		beq	.L1221
 6144 0046 B1F5805F 		cmp	r1, #4096
 6145 004a 13D1     		bne	.L1225
 6146 004c 006B     		ldr	r0, [r0, #48]
 6147 004e FFF7FEFF 		bl	HAL_DMA_Abort_IT
 6148 0052 E8E7     		b	.L1223
 6149              	.L1221:
 6150 0054 806B     		ldr	r0, [r0, #56]
 6151 0056 FFF7FEFF 		bl	HAL_DMA_Abort_IT
 6152 005a E4E7     		b	.L1223
 6153              	.L1217:
 6154 005c 806A     		ldr	r0, [r0, #40]
 6155 005e FFF7FEFF 		bl	HAL_DMA_Abort_IT
 6156 0062 E0E7     		b	.L1223
 6157              	.L1216:
 6158 0064 406A     		ldr	r0, [r0, #36]
 6159 0066 FFF7FEFF 		bl	HAL_DMA_Abort_IT
 6160 006a DCE7     		b	.L1223
 6161              	.L1214:
 6162 006c C06A     		ldr	r0, [r0, #44]
 6163 006e FFF7FEFF 		bl	HAL_DMA_Abort_IT
 6164 0072 D8E7     		b	.L1223
 6165              	.L1225:
 6166 0074 0120     		movs	r0, #1
 6167 0076 38BD     		pop	{r3, r4, r5, pc}
 6168              	.L1220:
 6169 0078 406B     		ldr	r0, [r0, #52]
 6170 007a FFF7FEFF 		bl	HAL_DMA_Abort_IT
 6171 007e D2E7     		b	.L1223
ARM GAS  /tmp/cc58c9Ir.s 			page 107


 6173              		.section	.text.HAL_TIM_DMABurst_ReadStart,"ax",%progbits
 6174              		.align	1
 6175              		.p2align 2,,3
 6176              		.global	HAL_TIM_DMABurst_ReadStart
 6177              		.syntax unified
 6178              		.thumb
 6179              		.thumb_func
 6181              	HAL_TIM_DMABurst_ReadStart:
 6182              		@ args = 4, pretend = 0, frame = 0
 6183              		@ frame_needed = 0, uses_anonymous_args = 0
 6184 0000 F8B5     		push	{r3, r4, r5, r6, r7, lr}
 6185 0002 0E46     		mov	r6, r1
 6186 0004 90F84610 		ldrb	r1, [r0, #70]	@ zero_extendqisi2
 6187 0008 069F     		ldr	r7, [sp, #24]
 6188 000a 0229     		cmp	r1, #2
 6189 000c 0446     		mov	r4, r0
 6190 000e C8B2     		uxtb	r0, r1
 6191 0010 2FD0     		beq	.L1227
 6192 0012 94F84610 		ldrb	r1, [r4, #70]	@ zero_extendqisi2
 6193 0016 1546     		mov	r5, r2
 6194 0018 0129     		cmp	r1, #1
 6195 001a 1A46     		mov	r2, r3
 6196 001c 4FEA1723 		lsr	r3, r7, #8
 6197 0020 03F10103 		add	r3, r3, #1
 6198 0024 39D0     		beq	.L1250
 6199 0026 B5F5006F 		cmp	r5, #2048
 6200 002a 3DD0     		beq	.L1231
 6201              	.L1252:
 6202 002c 22D8     		bhi	.L1232
 6203 002e B5F5007F 		cmp	r5, #512
 6204 0032 4BD0     		beq	.L1233
 6205 0034 B5F5806F 		cmp	r5, #1024
 6206 0038 42D0     		beq	.L1234
 6207 003a B5F5807F 		cmp	r5, #256
 6208 003e 43D1     		bne	.L1230
 6209 0040 206A     		ldr	r0, [r4, #32]
 6210 0042 2168     		ldr	r1, [r4]
 6211 0044 DFF89CC0 		ldr	ip, .L1253
 6212 0048 C0F83CC0 		str	ip, [r0, #60]
 6213 004c DFF898C0 		ldr	ip, .L1253+4
 6214 0050 4C31     		adds	r1, r1, #76
 6215              	.L1248:
 6216 0052 C0F840C0 		str	ip, [r0, #64]
 6217 0056 DFF894C0 		ldr	ip, .L1253+8
 6218 005a C0F84CC0 		str	ip, [r0, #76]
 6219 005e FFF7FEFF 		bl	HAL_DMA_Start_IT
 6220 0062 88BB     		cbnz	r0, .L1230
 6221 0064 2368     		ldr	r3, [r4]
 6222 0066 3E43     		orrs	r6, r6, r7
 6223 0068 9E64     		str	r6, [r3, #72]
 6224 006a DA68     		ldr	r2, [r3, #12]
 6225 006c 2A43     		orrs	r2, r2, r5
 6226 006e 0020     		movs	r0, #0
 6227 0070 DA60     		str	r2, [r3, #12]
 6228              	.L1227:
 6229 0072 F8BD     		pop	{r3, r4, r5, r6, r7, pc}
 6230              	.L1232:
ARM GAS  /tmp/cc58c9Ir.s 			page 108


 6231 0074 B5F5005F 		cmp	r5, #8192
 6232 0078 2AD0     		beq	.L1236
 6233 007a B5F5804F 		cmp	r5, #16384
 6234 007e 15D0     		beq	.L1237
 6235 0080 B5F5805F 		cmp	r5, #4096
 6236 0084 20D1     		bne	.L1230
 6237 0086 206B     		ldr	r0, [r4, #48]
 6238              	.L1249:
 6239 0088 2168     		ldr	r1, [r4]
 6240 008a DFF864C0 		ldr	ip, .L1253+12
 6241 008e C0F83CC0 		str	ip, [r0, #60]
 6242 0092 4C31     		adds	r1, r1, #76
 6243 0094 DFF85CC0 		ldr	ip, .L1253+16
 6244 0098 DBE7     		b	.L1248
 6245              	.L1250:
 6246 009a 9AB1     		cbz	r2, .L1251
 6247              	.L1229:
 6248 009c 0221     		movs	r1, #2
 6249 009e B5F5006F 		cmp	r5, #2048
 6250 00a2 84F84610 		strb	r1, [r4, #70]
 6251 00a6 C1D1     		bne	.L1252
 6252              	.L1231:
 6253 00a8 E06A     		ldr	r0, [r4, #44]
 6254 00aa EDE7     		b	.L1249
 6255              	.L1237:
 6256 00ac 2168     		ldr	r1, [r4]
 6257 00ae A06B     		ldr	r0, [r4, #56]
 6258 00b0 DFF844C0 		ldr	ip, .L1253+20
 6259 00b4 C0F83CC0 		str	ip, [r0, #60]
 6260 00b8 4C31     		adds	r1, r1, #76
 6261 00ba DFF840C0 		ldr	ip, .L1253+24
 6262 00be C8E7     		b	.L1248
 6263              	.L1234:
 6264 00c0 A06A     		ldr	r0, [r4, #40]
 6265 00c2 E1E7     		b	.L1249
 6266              	.L1251:
 6267 00c4 002F     		cmp	r7, #0
 6268 00c6 E9D0     		beq	.L1229
 6269              	.L1230:
 6270 00c8 0120     		movs	r0, #1
 6271 00ca F8BD     		pop	{r3, r4, r5, r6, r7, pc}
 6272              	.L1233:
 6273 00cc 606A     		ldr	r0, [r4, #36]
 6274 00ce DBE7     		b	.L1249
 6275              	.L1236:
 6276 00d0 2168     		ldr	r1, [r4]
 6277 00d2 606B     		ldr	r0, [r4, #52]
 6278 00d4 DFF828C0 		ldr	ip, .L1253+28
 6279 00d8 C0F83CC0 		str	ip, [r0, #60]
 6280 00dc 4C31     		adds	r1, r1, #76
 6281 00de DFF824C0 		ldr	ip, .L1253+32
 6282 00e2 B6E7     		b	.L1248
 6283              	.L1254:
 6284              		.align	2
 6285              	.L1253:
 6286 00e4 00000000 		.word	TIM_DMAPeriodElapsedCplt
 6287 00e8 00000000 		.word	TIM_DMAPeriodElapsedHalfCplt
ARM GAS  /tmp/cc58c9Ir.s 			page 109


 6288 00ec 00000000 		.word	TIM_DMAError
 6289 00f0 00000000 		.word	TIM_DMACaptureCplt
 6290 00f4 00000000 		.word	TIM_DMACaptureHalfCplt
 6291 00f8 00000000 		.word	TIM_DMATriggerCplt
 6292 00fc 00000000 		.word	TIM_DMATriggerHalfCplt
 6293 0100 00000000 		.word	TIMEx_DMACommutationCplt
 6294 0104 00000000 		.word	TIMEx_DMACommutationHalfCplt
 6296              		.section	.text.HAL_TIM_DMABurst_MultiReadStart,"ax",%progbits
 6297              		.align	1
 6298              		.p2align 2,,3
 6299              		.global	HAL_TIM_DMABurst_MultiReadStart
 6300              		.syntax unified
 6301              		.thumb
 6302              		.thumb_func
 6304              	HAL_TIM_DMABurst_MultiReadStart:
 6305              		@ args = 8, pretend = 0, frame = 0
 6306              		@ frame_needed = 0, uses_anonymous_args = 0
 6307 0000 70B5     		push	{r4, r5, r6, lr}
 6308 0002 90F846C0 		ldrb	ip, [r0, #70]	@ zero_extendqisi2
 6309 0006 BCF1020F 		cmp	ip, #2
 6310 000a 0446     		mov	r4, r0
 6311 000c 5FFA8CF0 		uxtb	r0, ip
 6312 0010 29D0     		beq	.L1256
 6313 0012 1546     		mov	r5, r2
 6314 0014 1A46     		mov	r2, r3
 6315 0016 94F84630 		ldrb	r3, [r4, #70]	@ zero_extendqisi2
 6316 001a 012B     		cmp	r3, #1
 6317 001c 0E46     		mov	r6, r1
 6318 001e 33D0     		beq	.L1279
 6319 0020 B5F5006F 		cmp	r5, #2048
 6320 0024 37D0     		beq	.L1260
 6321              	.L1281:
 6322 0026 1FD8     		bhi	.L1261
 6323 0028 B5F5007F 		cmp	r5, #512
 6324 002c 43D0     		beq	.L1262
 6325 002e B5F5806F 		cmp	r5, #1024
 6326 0032 39D0     		beq	.L1263
 6327 0034 B5F5807F 		cmp	r5, #256
 6328 0038 3BD1     		bne	.L1259
 6329 003a 206A     		ldr	r0, [r4, #32]
 6330 003c 2168     		ldr	r1, [r4]
 6331 003e 224B     		ldr	r3, .L1282
 6332 0040 C363     		str	r3, [r0, #60]
 6333 0042 224B     		ldr	r3, .L1282+4
 6334 0044 4C31     		adds	r1, r1, #76
 6335              	.L1277:
 6336 0046 0364     		str	r3, [r0, #64]
 6337 0048 214B     		ldr	r3, .L1282+8
 6338 004a C364     		str	r3, [r0, #76]
 6339 004c 059B     		ldr	r3, [sp, #20]
 6340 004e FFF7FEFF 		bl	HAL_DMA_Start_IT
 6341 0052 0028     		cmp	r0, #0
 6342 0054 2DD1     		bne	.L1259
 6343 0056 049A     		ldr	r2, [sp, #16]
 6344 0058 2368     		ldr	r3, [r4]
 6345 005a 1643     		orrs	r6, r6, r2
 6346 005c 9E64     		str	r6, [r3, #72]
ARM GAS  /tmp/cc58c9Ir.s 			page 110


 6347 005e DA68     		ldr	r2, [r3, #12]
 6348 0060 2A43     		orrs	r2, r2, r5
 6349 0062 0020     		movs	r0, #0
 6350 0064 DA60     		str	r2, [r3, #12]
 6351              	.L1256:
 6352 0066 70BD     		pop	{r4, r5, r6, pc}
 6353              	.L1261:
 6354 0068 B5F5005F 		cmp	r5, #8192
 6355 006c 25D0     		beq	.L1265
 6356 006e B5F5804F 		cmp	r5, #16384
 6357 0072 12D0     		beq	.L1266
 6358 0074 B5F5805F 		cmp	r5, #4096
 6359 0078 1BD1     		bne	.L1259
 6360 007a 206B     		ldr	r0, [r4, #48]
 6361              	.L1278:
 6362 007c 2168     		ldr	r1, [r4]
 6363 007e 154B     		ldr	r3, .L1282+12
 6364 0080 C363     		str	r3, [r0, #60]
 6365 0082 4C31     		adds	r1, r1, #76
 6366 0084 144B     		ldr	r3, .L1282+16
 6367 0086 DEE7     		b	.L1277
 6368              	.L1279:
 6369 0088 82B1     		cbz	r2, .L1280
 6370              	.L1258:
 6371 008a 0223     		movs	r3, #2
 6372 008c B5F5006F 		cmp	r5, #2048
 6373 0090 84F84630 		strb	r3, [r4, #70]
 6374 0094 C7D1     		bne	.L1281
 6375              	.L1260:
 6376 0096 E06A     		ldr	r0, [r4, #44]
 6377 0098 F0E7     		b	.L1278
 6378              	.L1266:
 6379 009a 2168     		ldr	r1, [r4]
 6380 009c A06B     		ldr	r0, [r4, #56]
 6381 009e 0F4B     		ldr	r3, .L1282+20
 6382 00a0 C363     		str	r3, [r0, #60]
 6383 00a2 4C31     		adds	r1, r1, #76
 6384 00a4 0E4B     		ldr	r3, .L1282+24
 6385 00a6 CEE7     		b	.L1277
 6386              	.L1263:
 6387 00a8 A06A     		ldr	r0, [r4, #40]
 6388 00aa E7E7     		b	.L1278
 6389              	.L1280:
 6390 00ac 049B     		ldr	r3, [sp, #16]
 6391 00ae 002B     		cmp	r3, #0
 6392 00b0 EBD0     		beq	.L1258
 6393              	.L1259:
 6394 00b2 0120     		movs	r0, #1
 6395 00b4 70BD     		pop	{r4, r5, r6, pc}
 6396              	.L1262:
 6397 00b6 606A     		ldr	r0, [r4, #36]
 6398 00b8 E0E7     		b	.L1278
 6399              	.L1265:
 6400 00ba 2168     		ldr	r1, [r4]
 6401 00bc 606B     		ldr	r0, [r4, #52]
 6402 00be 094B     		ldr	r3, .L1282+28
 6403 00c0 C363     		str	r3, [r0, #60]
ARM GAS  /tmp/cc58c9Ir.s 			page 111


 6404 00c2 4C31     		adds	r1, r1, #76
 6405 00c4 084B     		ldr	r3, .L1282+32
 6406 00c6 BEE7     		b	.L1277
 6407              	.L1283:
 6408              		.align	2
 6409              	.L1282:
 6410 00c8 00000000 		.word	TIM_DMAPeriodElapsedCplt
 6411 00cc 00000000 		.word	TIM_DMAPeriodElapsedHalfCplt
 6412 00d0 00000000 		.word	TIM_DMAError
 6413 00d4 00000000 		.word	TIM_DMACaptureCplt
 6414 00d8 00000000 		.word	TIM_DMACaptureHalfCplt
 6415 00dc 00000000 		.word	TIM_DMATriggerCplt
 6416 00e0 00000000 		.word	TIM_DMATriggerHalfCplt
 6417 00e4 00000000 		.word	TIMEx_DMACommutationCplt
 6418 00e8 00000000 		.word	TIMEx_DMACommutationHalfCplt
 6420              		.section	.text.HAL_TIM_DMABurst_ReadStop,"ax",%progbits
 6421              		.align	1
 6422              		.p2align 2,,3
 6423              		.global	HAL_TIM_DMABurst_ReadStop
 6424              		.syntax unified
 6425              		.thumb
 6426              		.thumb_func
 6428              	HAL_TIM_DMABurst_ReadStop:
 6429              		@ args = 0, pretend = 0, frame = 0
 6430              		@ frame_needed = 0, uses_anonymous_args = 0
 6431 0000 B1F5006F 		cmp	r1, #2048
 6432 0004 38B5     		push	{r3, r4, r5, lr}
 6433 0006 0C46     		mov	r4, r1
 6434 0008 0546     		mov	r5, r0
 6435 000a 2FD0     		beq	.L1285
 6436 000c 15D8     		bhi	.L1286
 6437 000e B1F5007F 		cmp	r1, #512
 6438 0012 27D0     		beq	.L1287
 6439 0014 B1F5806F 		cmp	r1, #1024
 6440 0018 20D0     		beq	.L1288
 6441 001a B1F5807F 		cmp	r1, #256
 6442 001e 29D1     		bne	.L1296
 6443 0020 006A     		ldr	r0, [r0, #32]
 6444 0022 FFF7FEFF 		bl	HAL_DMA_Abort_IT
 6445              	.L1294:
 6446 0026 2A68     		ldr	r2, [r5]
 6447 0028 D368     		ldr	r3, [r2, #12]
 6448 002a 0121     		movs	r1, #1
 6449 002c 23EA0403 		bic	r3, r3, r4
 6450 0030 D360     		str	r3, [r2, #12]
 6451 0032 85F84610 		strb	r1, [r5, #70]
 6452 0036 0020     		movs	r0, #0
 6453 0038 38BD     		pop	{r3, r4, r5, pc}
 6454              	.L1286:
 6455 003a B1F5005F 		cmp	r1, #8192
 6456 003e 1BD0     		beq	.L1291
 6457 0040 B1F5804F 		cmp	r1, #16384
 6458 0044 06D0     		beq	.L1292
 6459 0046 B1F5805F 		cmp	r1, #4096
 6460 004a 13D1     		bne	.L1296
 6461 004c 006B     		ldr	r0, [r0, #48]
 6462 004e FFF7FEFF 		bl	HAL_DMA_Abort_IT
ARM GAS  /tmp/cc58c9Ir.s 			page 112


 6463 0052 E8E7     		b	.L1294
 6464              	.L1292:
 6465 0054 806B     		ldr	r0, [r0, #56]
 6466 0056 FFF7FEFF 		bl	HAL_DMA_Abort_IT
 6467 005a E4E7     		b	.L1294
 6468              	.L1288:
 6469 005c 806A     		ldr	r0, [r0, #40]
 6470 005e FFF7FEFF 		bl	HAL_DMA_Abort_IT
 6471 0062 E0E7     		b	.L1294
 6472              	.L1287:
 6473 0064 406A     		ldr	r0, [r0, #36]
 6474 0066 FFF7FEFF 		bl	HAL_DMA_Abort_IT
 6475 006a DCE7     		b	.L1294
 6476              	.L1285:
 6477 006c C06A     		ldr	r0, [r0, #44]
 6478 006e FFF7FEFF 		bl	HAL_DMA_Abort_IT
 6479 0072 D8E7     		b	.L1294
 6480              	.L1296:
 6481 0074 0120     		movs	r0, #1
 6482 0076 38BD     		pop	{r3, r4, r5, pc}
 6483              	.L1291:
 6484 0078 406B     		ldr	r0, [r0, #52]
 6485 007a FFF7FEFF 		bl	HAL_DMA_Abort_IT
 6486 007e D2E7     		b	.L1294
 6488              		.section	.text.HAL_TIM_GenerateEvent,"ax",%progbits
 6489              		.align	1
 6490              		.p2align 2,,3
 6491              		.global	HAL_TIM_GenerateEvent
 6492              		.syntax unified
 6493              		.thumb
 6494              		.thumb_func
 6496              	HAL_TIM_GenerateEvent:
 6497              		@ args = 0, pretend = 0, frame = 0
 6498              		@ frame_needed = 0, uses_anonymous_args = 0
 6499              		@ link register save eliminated.
 6500 0000 90F83C20 		ldrb	r2, [r0, #60]	@ zero_extendqisi2
 6501 0004 012A     		cmp	r2, #1
 6502 0006 0346     		mov	r3, r0
 6503 0008 0ED0     		beq	.L1299
 6504 000a 0068     		ldr	r0, [r0]
 6505 000c 4FF0020C 		mov	ip, #2
 6506 0010 83F83DC0 		strb	ip, [r3, #61]
 6507 0014 0022     		movs	r2, #0
 6508 0016 4FF0010C 		mov	ip, #1
 6509 001a 4161     		str	r1, [r0, #20]
 6510 001c 1046     		mov	r0, r2
 6511 001e 83F83DC0 		strb	ip, [r3, #61]
 6512 0022 83F83C20 		strb	r2, [r3, #60]
 6513 0026 7047     		bx	lr
 6514              	.L1299:
 6515 0028 0220     		movs	r0, #2
 6516 002a 7047     		bx	lr
 6518              		.section	.text.HAL_TIM_ConfigOCrefClear,"ax",%progbits
 6519              		.align	1
 6520              		.p2align 2,,3
 6521              		.global	HAL_TIM_ConfigOCrefClear
 6522              		.syntax unified
ARM GAS  /tmp/cc58c9Ir.s 			page 113


 6523              		.thumb
 6524              		.thumb_func
 6526              	HAL_TIM_ConfigOCrefClear:
 6527              		@ args = 0, pretend = 0, frame = 0
 6528              		@ frame_needed = 0, uses_anonymous_args = 0
 6529              		@ link register save eliminated.
 6530 0000 0346     		mov	r3, r0
 6531 0002 90F83C00 		ldrb	r0, [r0, #60]	@ zero_extendqisi2
 6532 0006 0128     		cmp	r0, #1
 6533 0008 6BD0     		beq	.L1317
 6534 000a 30B4     		push	{r4, r5}
 6535 000c 0120     		movs	r0, #1
 6536 000e 0224     		movs	r4, #2
 6537 0010 83F83C00 		strb	r0, [r3, #60]
 6538 0014 83F83D40 		strb	r4, [r3, #61]
 6539 0018 4C68     		ldr	r4, [r1, #4]
 6540 001a C4B1     		cbz	r4, .L1302
 6541 001c 8442     		cmp	r4, r0
 6542 001e 07D0     		beq	.L1303
 6543              	.L1304:
 6544 0020 0121     		movs	r1, #1
 6545 0022 0022     		movs	r2, #0
 6546 0024 83F83D10 		strb	r1, [r3, #61]
 6547 0028 83F83C20 		strb	r2, [r3, #60]
 6548              	.L1301:
 6549 002c 30BC     		pop	{r4, r5}
 6550 002e 7047     		bx	lr
 6551              	.L1303:
 6552 0030 C868     		ldr	r0, [r1, #12]
 6553 0032 0028     		cmp	r0, #0
 6554 0034 39D1     		bne	.L1323
 6555 0036 1868     		ldr	r0, [r3]
 6556 0038 0D69     		ldr	r5, [r1, #16]
 6557 003a 8468     		ldr	r4, [r0, #8]
 6558 003c 24F47F4C 		bic	ip, r4, #65280
 6559 0040 8C68     		ldr	r4, [r1, #8]
 6560 0042 44EA0524 		orr	r4, r4, r5, lsl #8
 6561 0046 44EA0C04 		orr	r4, r4, ip
 6562 004a 8460     		str	r4, [r0, #8]
 6563 004c 04E0     		b	.L1305
 6564              	.L1302:
 6565 004e 1868     		ldr	r0, [r3]
 6566 0050 8468     		ldr	r4, [r0, #8]
 6567 0052 24F47F44 		bic	r4, r4, #65280
 6568 0056 8460     		str	r4, [r0, #8]
 6569              	.L1305:
 6570 0058 0C2A     		cmp	r2, #12
 6571 005a 24D8     		bhi	.L1307
 6572 005c 01A4     		adr	r4, .L1309
 6573 005e 54F822F0 		ldr	pc, [r4, r2, lsl #2]
 6574 0062 00BF     		.p2align 2
 6575              	.L1309:
 6576 0064 D5000000 		.word	.L1312+1
 6577 0068 A7000000 		.word	.L1307+1
 6578 006c A7000000 		.word	.L1307+1
 6579 0070 A7000000 		.word	.L1307+1
 6580 0074 C7000000 		.word	.L1311+1
ARM GAS  /tmp/cc58c9Ir.s 			page 114


 6581 0078 A7000000 		.word	.L1307+1
 6582 007c A7000000 		.word	.L1307+1
 6583 0080 A7000000 		.word	.L1307+1
 6584 0084 B9000000 		.word	.L1310+1
 6585 0088 A7000000 		.word	.L1307+1
 6586 008c A7000000 		.word	.L1307+1
 6587 0090 A7000000 		.word	.L1307+1
 6588 0094 99000000 		.word	.L1308+1
 6589              		.p2align 1
 6590              	.L1308:
 6591 0098 0A68     		ldr	r2, [r1]
 6592 009a 002A     		cmp	r2, #0
 6593 009c 32D1     		bne	.L1324
 6594 009e C269     		ldr	r2, [r0, #28]
 6595 00a0 22F40042 		bic	r2, r2, #32768
 6596 00a4 C261     		str	r2, [r0, #28]
 6597              	.L1307:
 6598 00a6 0020     		movs	r0, #0
 6599 00a8 BAE7     		b	.L1304
 6600              	.L1323:
 6601 00aa 0022     		movs	r2, #0
 6602 00ac 83F83D40 		strb	r4, [r3, #61]
 6603 00b0 83F83C20 		strb	r2, [r3, #60]
 6604 00b4 2046     		mov	r0, r4
 6605 00b6 B9E7     		b	.L1301
 6606              	.L1310:
 6607 00b8 0A68     		ldr	r2, [r1]
 6608 00ba F2B1     		cbz	r2, .L1315
 6609 00bc C269     		ldr	r2, [r0, #28]
 6610 00be 42F08002 		orr	r2, r2, #128
 6611 00c2 C261     		str	r2, [r0, #28]
 6612 00c4 EFE7     		b	.L1307
 6613              	.L1311:
 6614 00c6 0A68     		ldr	r2, [r1]
 6615 00c8 92B1     		cbz	r2, .L1314
 6616 00ca 8269     		ldr	r2, [r0, #24]
 6617 00cc 42F40042 		orr	r2, r2, #32768
 6618 00d0 8261     		str	r2, [r0, #24]
 6619 00d2 E8E7     		b	.L1307
 6620              	.L1312:
 6621 00d4 0A68     		ldr	r2, [r1]
 6622 00d6 32B1     		cbz	r2, .L1313
 6623 00d8 8269     		ldr	r2, [r0, #24]
 6624 00da 42F08002 		orr	r2, r2, #128
 6625 00de 8261     		str	r2, [r0, #24]
 6626 00e0 E1E7     		b	.L1307
 6627              	.L1317:
 6628 00e2 0220     		movs	r0, #2
 6629 00e4 7047     		bx	lr
 6630              	.L1313:
 6631 00e6 8269     		ldr	r2, [r0, #24]
 6632 00e8 22F08002 		bic	r2, r2, #128
 6633 00ec 8261     		str	r2, [r0, #24]
 6634 00ee DAE7     		b	.L1307
 6635              	.L1314:
 6636 00f0 8269     		ldr	r2, [r0, #24]
 6637 00f2 22F40042 		bic	r2, r2, #32768
ARM GAS  /tmp/cc58c9Ir.s 			page 115


 6638 00f6 8261     		str	r2, [r0, #24]
 6639 00f8 D5E7     		b	.L1307
 6640              	.L1315:
 6641 00fa C269     		ldr	r2, [r0, #28]
 6642 00fc 22F08002 		bic	r2, r2, #128
 6643 0100 C261     		str	r2, [r0, #28]
 6644 0102 D0E7     		b	.L1307
 6645              	.L1324:
 6646 0104 C269     		ldr	r2, [r0, #28]
 6647 0106 42F40042 		orr	r2, r2, #32768
 6648 010a C261     		str	r2, [r0, #28]
 6649 010c CBE7     		b	.L1307
 6651 010e 00BF     		.section	.text.HAL_TIM_ConfigClockSource,"ax",%progbits
 6652              		.align	1
 6653              		.p2align 2,,3
 6654              		.global	HAL_TIM_ConfigClockSource
 6655              		.syntax unified
 6656              		.thumb
 6657              		.thumb_func
 6659              	HAL_TIM_ConfigClockSource:
 6660              		@ args = 0, pretend = 0, frame = 0
 6661              		@ frame_needed = 0, uses_anonymous_args = 0
 6662              		@ link register save eliminated.
 6663 0000 90F83C20 		ldrb	r2, [r0, #60]	@ zero_extendqisi2
 6664 0004 012A     		cmp	r2, #1
 6665 0006 6ED0     		beq	.L1337
 6666 0008 0346     		mov	r3, r0
 6667 000a 0268     		ldr	r2, [r0]
 6668 000c 30B4     		push	{r4, r5}
 6669 000e 0120     		movs	r0, #1
 6670 0010 0224     		movs	r4, #2
 6671 0012 83F83C00 		strb	r0, [r3, #60]
 6672 0016 83F83D40 		strb	r4, [r3, #61]
 6673 001a 9468     		ldr	r4, [r2, #8]
 6674 001c 24F47F44 		bic	r4, r4, #65280
 6675 0020 24F07704 		bic	r4, r4, #119
 6676 0024 9460     		str	r4, [r2, #8]
 6677 0026 0C68     		ldr	r4, [r1]
 6678 0028 602C     		cmp	r4, #96
 6679 002a 76D0     		beq	.L1327
 6680 002c 19D8     		bhi	.L1328
 6681 002e 402C     		cmp	r4, #64
 6682 0030 5BD0     		beq	.L1329
 6683 0032 2ED8     		bhi	.L1330
 6684 0034 202C     		cmp	r4, #32
 6685 0036 04D0     		beq	.L1331
 6686 0038 00F28880 		bhi	.L1332
 6687 003c 34F01001 		bics	r1, r4, #16
 6688 0040 07D1     		bne	.L1333
 6689              	.L1331:
 6690 0042 9168     		ldr	r1, [r2, #8]
 6691 0044 21F07001 		bic	r1, r1, #112
 6692 0048 2143     		orrs	r1, r1, r4
 6693 004a 41F00701 		orr	r1, r1, #7
 6694 004e 9160     		str	r1, [r2, #8]
 6695              	.L1335:
 6696 0050 0020     		movs	r0, #0
ARM GAS  /tmp/cc58c9Ir.s 			page 116


 6697              	.L1333:
 6698 0052 0121     		movs	r1, #1
 6699 0054 0022     		movs	r2, #0
 6700 0056 83F83D10 		strb	r1, [r3, #61]
 6701 005a 83F83C20 		strb	r2, [r3, #60]
 6702 005e 30BC     		pop	{r4, r5}
 6703 0060 7047     		bx	lr
 6704              	.L1328:
 6705 0062 B4F5805F 		cmp	r4, #4096
 6706 0066 F3D0     		beq	.L1335
 6707 0068 B4F5005F 		cmp	r4, #8192
 6708 006c 2BD0     		beq	.L1336
 6709 006e 702C     		cmp	r4, #112
 6710 0070 EFD1     		bne	.L1333
 6711 0072 D1E90150 		ldrd	r5, r0, [r1, #4]
 6712 0076 9468     		ldr	r4, [r2, #8]
 6713 0078 2843     		orrs	r0, r0, r5
 6714 007a CD68     		ldr	r5, [r1, #12]
 6715 007c 24F47F41 		bic	r1, r4, #65280
 6716 0080 40EA0520 		orr	r0, r0, r5, lsl #8
 6717 0084 0843     		orrs	r0, r0, r1
 6718 0086 9060     		str	r0, [r2, #8]
 6719 0088 9168     		ldr	r1, [r2, #8]
 6720 008a 41F07701 		orr	r1, r1, #119
 6721 008e 9160     		str	r1, [r2, #8]
 6722 0090 DEE7     		b	.L1335
 6723              	.L1330:
 6724 0092 502C     		cmp	r4, #80
 6725 0094 DDD1     		bne	.L1333
 6726 0096 4868     		ldr	r0, [r1, #4]
 6727 0098 CC68     		ldr	r4, [r1, #12]
 6728 009a 116A     		ldr	r1, [r2, #32]
 6729 009c 21F00A01 		bic	r1, r1, #10
 6730 00a0 0843     		orrs	r0, r0, r1
 6731 00a2 116A     		ldr	r1, [r2, #32]
 6732 00a4 21F00101 		bic	r1, r1, #1
 6733 00a8 1162     		str	r1, [r2, #32]
 6734 00aa 9169     		ldr	r1, [r2, #24]
 6735 00ac 21F0F001 		bic	r1, r1, #240
 6736 00b0 41EA0411 		orr	r1, r1, r4, lsl #4
 6737 00b4 9161     		str	r1, [r2, #24]
 6738 00b6 1062     		str	r0, [r2, #32]
 6739 00b8 9168     		ldr	r1, [r2, #8]
 6740 00ba 21F07001 		bic	r1, r1, #112
 6741 00be 41F05701 		orr	r1, r1, #87
 6742 00c2 9160     		str	r1, [r2, #8]
 6743 00c4 C4E7     		b	.L1335
 6744              	.L1336:
 6745 00c6 D1E90150 		ldrd	r5, r0, [r1, #4]
