ARM GAS  /tmp/ccRrhMFc.s 			page 1


   1              		.cpu cortex-m4
   2              		.arch armv7e-m
   3              		.fpu fpv4-sp-d16
   4              		.eabi_attribute 27, 1
   5              		.eabi_attribute 28, 1
   6              		.eabi_attribute 23, 1
   7              		.eabi_attribute 24, 1
   8              		.eabi_attribute 25, 1
   9              		.eabi_attribute 26, 1
  10              		.eabi_attribute 30, 2
  11              		.eabi_attribute 34, 1
  12              		.eabi_attribute 18, 4
  13              		.file	"syscalls.c"
  14              		.text
  15              		.section	.text.initialise_monitor_handles,"ax",%progbits
  16              		.align	1
  17              		.p2align 2,,3
  18              		.global	initialise_monitor_handles
  19              		.syntax unified
  20              		.thumb
  21              		.thumb_func
  23              	initialise_monitor_handles:
  24              		@ args = 0, pretend = 0, frame = 0
  25              		@ frame_needed = 0, uses_anonymous_args = 0
  26              		@ link register save eliminated.
  27 0000 7047     		bx	lr
  29 0002 00BF     		.section	.text._getpid,"ax",%progbits
  30              		.align	1
  31              		.p2align 2,,3
  32              		.global	_getpid
  33              		.syntax unified
  34              		.thumb
  35              		.thumb_func
  37              	_getpid:
  38              		@ args = 0, pretend = 0, frame = 0
  39              		@ frame_needed = 0, uses_anonymous_args = 0
  40              		@ link register save eliminated.
  41 0000 0120     		movs	r0, #1
  42 0002 7047     		bx	lr
  44              		.section	.text._kill,"ax",%progbits
  45              		.align	1
  46              		.p2align 2,,3
  47              		.global	_kill
  48              		.syntax unified
  49              		.thumb
  50              		.thumb_func
  52              	_kill:
  53              		@ args = 0, pretend = 0, frame = 0
  54              		@ frame_needed = 0, uses_anonymous_args = 0
  55 0000 08B5     		push	{r3, lr}
  56 0002 FFF7FEFF 		bl	__errno
  57 0006 1623     		movs	r3, #22
  58 0008 0360     		str	r3, [r0]
  59 000a 4FF0FF30 		mov	r0, #-1
  60 000e 08BD     		pop	{r3, pc}
  62              		.section	.text._exit,"ax",%progbits
  63              		.align	1
ARM GAS  /tmp/ccRrhMFc.s 			page 2


  64              		.p2align 2,,3
  65              		.global	_exit
  66              		.syntax unified
  67              		.thumb
  68              		.thumb_func
  70              	_exit:
  71              		@ Volatile: function does not return.
  72              		@ args = 0, pretend = 0, frame = 0
  73              		@ frame_needed = 0, uses_anonymous_args = 0
  74 0000 08B5     		push	{r3, lr}
  75 0002 FFF7FEFF 		bl	__errno
  76 0006 1623     		movs	r3, #22
  77 0008 0360     		str	r3, [r0]
  78              	.L7:
  79 000a FEE7     		b	.L7
  81              		.section	.text._read,"ax",%progbits
  82              		.align	1
  83              		.p2align 2,,3
  84              		.weak	_read
  85              		.syntax unified
  86              		.thumb
  87              		.thumb_func
  89              	_read:
  90              		@ args = 0, pretend = 0, frame = 0
  91              		@ frame_needed = 0, uses_anonymous_args = 0
  92 0000 70B5     		push	{r4, r5, r6, lr}
  93 0002 161E     		subs	r6, r2, #0
  94 0004 07DD     		ble	.L10
  95 0006 0C46     		mov	r4, r1
  96 0008 8D19     		adds	r5, r1, r6
  97              	.L11:
  98 000a FFF7FEFF 		bl	__io_getchar
  99 000e 04F8010B 		strb	r0, [r4], #1
 100 0012 A542     		cmp	r5, r4
 101 0014 F9D1     		bne	.L11
 102              	.L10:
 103 0016 3046     		mov	r0, r6
 104 0018 70BD     		pop	{r4, r5, r6, pc}
 106 001a 00BF     		.section	.text._write,"ax",%progbits
 107              		.align	1
 108              		.p2align 2,,3
 109              		.weak	_write
 110              		.syntax unified
 111              		.thumb
 112              		.thumb_func
 114              	_write:
 115              		@ args = 0, pretend = 0, frame = 0
 116              		@ frame_needed = 0, uses_anonymous_args = 0
 117 0000 70B5     		push	{r4, r5, r6, lr}
 118 0002 161E     		subs	r6, r2, #0
 119 0004 07DD     		ble	.L15
 120 0006 0C46     		mov	r4, r1
 121 0008 8D19     		adds	r5, r1, r6
 122              	.L16:
 123 000a 14F8010B 		ldrb	r0, [r4], #1	@ zero_extendqisi2
 124 000e FFF7FEFF 		bl	__io_putchar
 125 0012 A542     		cmp	r5, r4
ARM GAS  /tmp/ccRrhMFc.s 			page 3


 126 0014 F9D1     		bne	.L16
 127              	.L15:
 128 0016 3046     		mov	r0, r6
 129 0018 70BD     		pop	{r4, r5, r6, pc}
 131 001a 00BF     		.section	.text._close,"ax",%progbits
 132              		.align	1
 133              		.p2align 2,,3
 134              		.global	_close
 135              		.syntax unified
 136              		.thumb
 137              		.thumb_func
 139              	_close:
 140              		@ args = 0, pretend = 0, frame = 0
 141              		@ frame_needed = 0, uses_anonymous_args = 0
 142              		@ link register save eliminated.
 143 0000 4FF0FF30 		mov	r0, #-1
 144 0004 7047     		bx	lr
 146 0006 00BF     		.section	.text._fstat,"ax",%progbits
 147              		.align	1
 148              		.p2align 2,,3
 149              		.global	_fstat
 150              		.syntax unified
 151              		.thumb
 152              		.thumb_func
 154              	_fstat:
 155              		@ args = 0, pretend = 0, frame = 0
 156              		@ frame_needed = 0, uses_anonymous_args = 0
 157              		@ link register save eliminated.
 158 0000 4FF40053 		mov	r3, #8192
 159 0004 4B60     		str	r3, [r1, #4]
 160 0006 0020     		movs	r0, #0
 161 0008 7047     		bx	lr
 163 000a 00BF     		.section	.text._isatty,"ax",%progbits
 164              		.align	1
 165              		.p2align 2,,3
 166              		.global	_isatty
 167              		.syntax unified
 168              		.thumb
 169              		.thumb_func
 171              	_isatty:
 172              		@ args = 0, pretend = 0, frame = 0
 173              		@ frame_needed = 0, uses_anonymous_args = 0
 174              		@ link register save eliminated.
 175 0000 0120     		movs	r0, #1
 176 0002 7047     		bx	lr
 178              		.section	.text._lseek,"ax",%progbits
 179              		.align	1
 180              		.p2align 2,,3
 181              		.global	_lseek
 182              		.syntax unified
 183              		.thumb
 184              		.thumb_func
 186              	_lseek:
 187              		@ args = 0, pretend = 0, frame = 0
 188              		@ frame_needed = 0, uses_anonymous_args = 0
 189              		@ link register save eliminated.
 190 0000 0020     		movs	r0, #0
ARM GAS  /tmp/ccRrhMFc.s 			page 4


 191 0002 7047     		bx	lr
 193              		.section	.text._open,"ax",%progbits
 194              		.align	1
 195              		.p2align 2,,3
 196              		.global	_open
 197              		.syntax unified
 198              		.thumb
 199              		.thumb_func
 201              	_open:
 202              		@ args = 4, pretend = 12, frame = 0
 203              		@ frame_needed = 0, uses_anonymous_args = 1
 204              		@ link register save eliminated.
 205 0000 0EB4     		push	{r1, r2, r3}
 206 0002 4FF0FF30 		mov	r0, #-1
 207 0006 03B0     		add	sp, sp, #12
 208 0008 7047     		bx	lr
 210 000a 00BF     		.section	.text._wait,"ax",%progbits
 211              		.align	1
 212              		.p2align 2,,3
 213              		.global	_wait
 214              		.syntax unified
 215              		.thumb
 216              		.thumb_func
 218              	_wait:
 219              		@ args = 0, pretend = 0, frame = 0
 220              		@ frame_needed = 0, uses_anonymous_args = 0
 221 0000 08B5     		push	{r3, lr}
 222 0002 FFF7FEFF 		bl	__errno
 223 0006 0A23     		movs	r3, #10
 224 0008 0360     		str	r3, [r0]
 225 000a 4FF0FF30 		mov	r0, #-1
 226 000e 08BD     		pop	{r3, pc}
 228              		.section	.text._unlink,"ax",%progbits
 229              		.align	1
 230              		.p2align 2,,3
 231              		.global	_unlink
 232              		.syntax unified
 233              		.thumb
 234              		.thumb_func
 236              	_unlink:
 237              		@ args = 0, pretend = 0, frame = 0
 238              		@ frame_needed = 0, uses_anonymous_args = 0
 239 0000 08B5     		push	{r3, lr}
 240 0002 FFF7FEFF 		bl	__errno
 241 0006 0223     		movs	r3, #2
 242 0008 0360     		str	r3, [r0]
 243 000a 4FF0FF30 		mov	r0, #-1
 244 000e 08BD     		pop	{r3, pc}
 246              		.section	.text._times,"ax",%progbits
 247              		.align	1
 248              		.p2align 2,,3
 249              		.global	_times
 250              		.syntax unified
 251              		.thumb
 252              		.thumb_func
 254              	_times:
 255              		@ args = 0, pretend = 0, frame = 0
ARM GAS  /tmp/ccRrhMFc.s 			page 5


 256              		@ frame_needed = 0, uses_anonymous_args = 0
 257              		@ link register save eliminated.
 258 0000 4FF0FF30 		mov	r0, #-1
 259 0004 7047     		bx	lr
 261 0006 00BF     		.section	.text._stat,"ax",%progbits
 262              		.align	1
 263              		.p2align 2,,3
 264              		.global	_stat
 265              		.syntax unified
 266              		.thumb
 267              		.thumb_func
 269              	_stat:
 270              		@ args = 0, pretend = 0, frame = 0
 271              		@ frame_needed = 0, uses_anonymous_args = 0
 272              		@ link register save eliminated.
 273 0000 4FF40053 		mov	r3, #8192
 274 0004 4B60     		str	r3, [r1, #4]
 275 0006 0020     		movs	r0, #0
 276 0008 7047     		bx	lr
 278 000a 00BF     		.section	.text._link,"ax",%progbits
 279              		.align	1
 280              		.p2align 2,,3
 281              		.global	_link
 282              		.syntax unified
 283              		.thumb
 284              		.thumb_func
 286              	_link:
 287              		@ args = 0, pretend = 0, frame = 0
 288              		@ frame_needed = 0, uses_anonymous_args = 0
 289 0000 08B5     		push	{r3, lr}
 290 0002 FFF7FEFF 		bl	__errno
 291 0006 1F23     		movs	r3, #31
 292 0008 0360     		str	r3, [r0]
 293 000a 4FF0FF30 		mov	r0, #-1
 294 000e 08BD     		pop	{r3, pc}
 296              		.section	.text._fork,"ax",%progbits
 297              		.align	1
 298              		.p2align 2,,3
 299              		.global	_fork
 300              		.syntax unified
 301              		.thumb
 302              		.thumb_func
 304              	_fork:
 305              		@ args = 0, pretend = 0, frame = 0
 306              		@ frame_needed = 0, uses_anonymous_args = 0
 307 0000 08B5     		push	{r3, lr}
 308 0002 FFF7FEFF 		bl	__errno
 309 0006 0B23     		movs	r3, #11
 310 0008 0360     		str	r3, [r0]
 311 000a 4FF0FF30 		mov	r0, #-1
 312 000e 08BD     		pop	{r3, pc}
 314              		.section	.text._execve,"ax",%progbits
 315              		.align	1
 316              		.p2align 2,,3
 317              		.global	_execve
 318              		.syntax unified
 319              		.thumb
ARM GAS  /tmp/ccRrhMFc.s 			page 6


 320              		.thumb_func
 322              	_execve:
 323              		@ args = 0, pretend = 0, frame = 0
 324              		@ frame_needed = 0, uses_anonymous_args = 0
 325 0000 08B5     		push	{r3, lr}
 326 0002 FFF7FEFF 		bl	__errno
 327 0006 0C23     		movs	r3, #12
 328 0008 0360     		str	r3, [r0]
 329 000a 4FF0FF30 		mov	r0, #-1
 330 000e 08BD     		pop	{r3, pc}
 332              		.global	environ
 333              		.section	.data.environ,"aw"
 334              		.align	2
 337              	environ:
 338 0000 00000000 		.word	__env
 339              		.global	__env
 340              		.section	.bss.__env,"aw",%nobits
 341              		.align	2
 344              	__env:
 345 0000 00000000 		.space	4
 346              		.weak	__io_putchar
 347              		.weak	__io_getchar
 348              		.ident	"GCC: (Arch Repository) 14.1.0"
ARM GAS  /tmp/ccRrhMFc.s 			page 7

