ARM GAS  /tmp/ccBMvo8b.s 			page 1


   1              		.cpu cortex-m4
   2              		.arch armv7e-m
   3              		.fpu fpv4-sp-d16
   4              		.eabi_attribute 27, 1
   5              		.eabi_attribute 28, 1
   6              		.eabi_attribute 23, 1
   7              		.eabi_attribute 24, 1
   8              		.eabi_attribute 25, 1
   9              		.eabi_attribute 26, 1
  10              		.eabi_attribute 30, 2
  11              		.eabi_attribute 34, 1
  12              		.eabi_attribute 18, 4
  13              		.file	"usart.c"
  14              		.text
  15              		.section	.text.MX_USART1_UART_Init,"ax",%progbits
  16              		.align	1
  17              		.p2align 2,,3
  18              		.global	MX_USART1_UART_Init
  19              		.syntax unified
  20              		.thumb
  21              		.thumb_func
  23              	MX_USART1_UART_Init:
  24              		@ args = 0, pretend = 0, frame = 0
  25              		@ frame_needed = 0, uses_anonymous_args = 0
  26 0000 10B5     		push	{r4, lr}
  27 0002 0B48     		ldr	r0, .L6
  28 0004 0B4C     		ldr	r4, .L6+4
  29 0006 4FF49641 		mov	r1, #19200
  30 000a 0023     		movs	r3, #0
  31 000c C4E90001 		strd	r0, r1, [r4]
  32 0010 0C22     		movs	r2, #12
  33 0012 2046     		mov	r0, r4
  34 0014 C4E90233 		strd	r3, r3, [r4, #8]
  35 0018 C4E90432 		strd	r3, r2, [r4, #16]
  36 001c C4E90633 		strd	r3, r3, [r4, #24]
  37 0020 FFF7FEFF 		bl	HAL_UART_Init
  38 0024 00B9     		cbnz	r0, .L5
  39 0026 10BD     		pop	{r4, pc}
  40              	.L5:
  41 0028 BDE81040 		pop	{r4, lr}
  42 002c FFF7FEBF 		b	Error_Handler
  43              	.L7:
  44              		.align	2
  45              	.L6:
  46 0030 00100140 		.word	1073811456
  47 0034 00000000 		.word	huart1
  49              		.section	.text.HAL_UART_MspInit,"ax",%progbits
  50              		.align	1
  51              		.p2align 2,,3
  52              		.global	HAL_UART_MspInit
  53              		.syntax unified
  54              		.thumb
  55              		.thumb_func
  57              	HAL_UART_MspInit:
  58              		@ args = 0, pretend = 0, frame = 40
  59              		@ frame_needed = 0, uses_anonymous_args = 0
  60 0000 70B5     		push	{r4, r5, r6, lr}
ARM GAS  /tmp/ccBMvo8b.s 			page 2


  61 0002 274B     		ldr	r3, .L12
  62 0004 0268     		ldr	r2, [r0]
  63 0006 8AB0     		sub	sp, sp, #40
  64 0008 0024     		movs	r4, #0
  65 000a 9A42     		cmp	r2, r3
  66 000c CDE90444 		strd	r4, r4, [sp, #16]
  67 0010 CDE90644 		strd	r4, r4, [sp, #24]
  68 0014 0894     		str	r4, [sp, #32]
  69 0016 01D0     		beq	.L11
  70 0018 0AB0     		add	sp, sp, #40
  71              		@ sp needed
  72 001a 70BD     		pop	{r4, r5, r6, pc}
  73              	.L11:
  74 001c 03F59433 		add	r3, r3, #75776
  75 0020 0194     		str	r4, [sp, #4]
  76 0022 5A6C     		ldr	r2, [r3, #68]
  77 0024 1F48     		ldr	r0, .L12+4
  78 0026 42F01002 		orr	r2, r2, #16
  79 002a 5A64     		str	r2, [r3, #68]
  80 002c 5A6C     		ldr	r2, [r3, #68]
  81 002e 02F01002 		and	r2, r2, #16
  82 0032 0192     		str	r2, [sp, #4]
  83 0034 019A     		ldr	r2, [sp, #4]
  84 0036 0294     		str	r4, [sp, #8]
  85 0038 1A6B     		ldr	r2, [r3, #48]
  86 003a 42F00202 		orr	r2, r2, #2
  87 003e 1A63     		str	r2, [r3, #48]
  88 0040 1A6B     		ldr	r2, [r3, #48]
  89 0042 02F00202 		and	r2, r2, #2
  90 0046 0292     		str	r2, [sp, #8]
  91 0048 029A     		ldr	r2, [sp, #8]
  92 004a 0394     		str	r4, [sp, #12]
  93 004c 1A6B     		ldr	r2, [r3, #48]
  94 004e 42F00102 		orr	r2, r2, #1
  95 0052 1A63     		str	r2, [r3, #48]
  96 0054 1B6B     		ldr	r3, [r3, #48]
  97 0056 03F00103 		and	r3, r3, #1
  98 005a 0393     		str	r3, [sp, #12]
  99 005c 8022     		movs	r2, #128
 100 005e 0326     		movs	r6, #3
 101 0060 0725     		movs	r5, #7
 102 0062 04A9     		add	r1, sp, #16
 103 0064 0223     		movs	r3, #2
 104 0066 CDE90423 		strd	r2, [sp, #16]
 105 006a CDE90765 		strd	r6, r5, [sp, #28]
 106 006e 039B     		ldr	r3, [sp, #12]
 107 0070 FFF7FEFF 		bl	HAL_GPIO_Init
 108 0074 4FF40073 		mov	r3, #512
 109 0078 04A9     		add	r1, sp, #16
 110 007a 0493     		str	r3, [sp, #16]
 111 007c 0A48     		ldr	r0, .L12+8
 112 007e 0895     		str	r5, [sp, #32]
 113 0080 0223     		movs	r3, #2
 114 0082 0593     		str	r3, [sp, #20]
 115 0084 CDE90646 		strd	r4, r6, [sp, #24]
 116 0088 FFF7FEFF 		bl	HAL_GPIO_Init
 117 008c 2246     		mov	r2, r4
ARM GAS  /tmp/ccBMvo8b.s 			page 3


 118 008e 2146     		mov	r1, r4
 119 0090 2520     		movs	r0, #37
 120 0092 FFF7FEFF 		bl	HAL_NVIC_SetPriority
 121 0096 2520     		movs	r0, #37
 122 0098 FFF7FEFF 		bl	HAL_NVIC_EnableIRQ
 123 009c 0AB0     		add	sp, sp, #40
 124              		@ sp needed
 125 009e 70BD     		pop	{r4, r5, r6, pc}
 126              	.L13:
 127              		.align	2
 128              	.L12:
 129 00a0 00100140 		.word	1073811456
 130 00a4 00040240 		.word	1073873920
 131 00a8 00000240 		.word	1073872896
 133              		.section	.text.HAL_UART_MspDeInit,"ax",%progbits
 134              		.align	1
 135              		.p2align 2,,3
 136              		.global	HAL_UART_MspDeInit
 137              		.syntax unified
 138              		.thumb
 139              		.thumb_func
 141              	HAL_UART_MspDeInit:
 142              		@ args = 0, pretend = 0, frame = 0
 143              		@ frame_needed = 0, uses_anonymous_args = 0
 144 0000 08B5     		push	{r3, lr}
 145 0002 0268     		ldr	r2, [r0]
 146 0004 0B4B     		ldr	r3, .L18
 147 0006 9A42     		cmp	r2, r3
 148 0008 00D0     		beq	.L17
 149 000a 08BD     		pop	{r3, pc}
 150              	.L17:
 151 000c 0A4A     		ldr	r2, .L18+4
 152 000e 0B48     		ldr	r0, .L18+8
 153 0010 536C     		ldr	r3, [r2, #68]
 154 0012 23F01003 		bic	r3, r3, #16
 155 0016 5364     		str	r3, [r2, #68]
 156 0018 8021     		movs	r1, #128
 157 001a FFF7FEFF 		bl	HAL_GPIO_DeInit
 158 001e 0848     		ldr	r0, .L18+12
 159 0020 4FF40071 		mov	r1, #512
 160 0024 FFF7FEFF 		bl	HAL_GPIO_DeInit
 161 0028 BDE80840 		pop	{r3, lr}
 162 002c 2520     		movs	r0, #37
 163 002e FFF7FEBF 		b	HAL_NVIC_DisableIRQ
 164              	.L19:
 165 0032 00BF     		.align	2
 166              	.L18:
 167 0034 00100140 		.word	1073811456
 168 0038 00380240 		.word	1073887232
 169 003c 00040240 		.word	1073873920
 170 0040 00000240 		.word	1073872896
 172              		.global	huart1
 173              		.section	.bss.huart1,"aw",%nobits
 174              		.align	3
 177              	huart1:
 178 0000 00000000 		.space	72
 178      00000000 
ARM GAS  /tmp/ccBMvo8b.s 			page 4


 178      00000000 
 178      00000000 
 178      00000000 
 179              		.ident	"GCC: (Arch Repository) 14.1.0"
ARM GAS  /tmp/ccBMvo8b.s 			page 5

