ARM GAS  /tmp/ccELBfJn.s 			page 1


   1              		.cpu cortex-m4
   2              		.arch armv7e-m
   3              		.fpu fpv4-sp-d16
   4              		.eabi_attribute 27, 1
   5              		.eabi_attribute 28, 1
   6              		.eabi_attribute 23, 1
   7              		.eabi_attribute 24, 1
   8              		.eabi_attribute 25, 1
   9              		.eabi_attribute 26, 1
  10              		.eabi_attribute 30, 2
  11              		.eabi_attribute 34, 1
  12              		.eabi_attribute 18, 4
  13              		.file	"stm32f4xx_hal_dma.c"
  14              		.text
  15              		.section	.text.HAL_DMA_Init,"ax",%progbits
  16              		.align	1
  17              		.p2align 2,,3
  18              		.global	HAL_DMA_Init
  19              		.syntax unified
  20              		.thumb
  21              		.thumb_func
  23              	HAL_DMA_Init:
  24              		@ args = 0, pretend = 0, frame = 0
  25              		@ frame_needed = 0, uses_anonymous_args = 0
  26 0000 38B5     		push	{r3, r4, r5, lr}
  27 0002 0446     		mov	r4, r0
  28 0004 FFF7FEFF 		bl	HAL_GetTick
  29 0008 002C     		cmp	r4, #0
  30 000a 6DD0     		beq	.L2
  31 000c 2368     		ldr	r3, [r4]
  32 000e 0022     		movs	r2, #0
  33 0010 0221     		movs	r1, #2
  34 0012 84F83510 		strb	r1, [r4, #53]
  35 0016 84F83420 		strb	r2, [r4, #52]
  36 001a 1A68     		ldr	r2, [r3]
  37 001c 22F00102 		bic	r2, r2, #1
  38 0020 0546     		mov	r5, r0
  39 0022 1A60     		str	r2, [r3]
  40 0024 05E0     		b	.L3
  41              	.L6:
  42 0026 FFF7FEFF 		bl	HAL_GetTick
  43 002a 431B     		subs	r3, r0, r5
  44 002c 052B     		cmp	r3, #5
  45 002e 37D8     		bhi	.L38
  46 0030 2368     		ldr	r3, [r4]
  47              	.L3:
  48 0032 1A68     		ldr	r2, [r3]
  49 0034 D107     		lsls	r1, r2, #31
  50 0036 F6D4     		bmi	.L6
  51 0038 D4E90120 		ldrd	r2, r0, [r4, #4]
  52 003c E168     		ldr	r1, [r4, #12]
  53 003e 0243     		orrs	r2, r2, r0
  54 0040 0A43     		orrs	r2, r2, r1
  55 0042 D4E90451 		ldrd	r5, r1, [r4, #16]
  56 0046 A069     		ldr	r0, [r4, #24]
  57 0048 2A43     		orrs	r2, r2, r5
  58 004a 0A43     		orrs	r2, r2, r1
ARM GAS  /tmp/ccELBfJn.s 			page 2


  59 004c E169     		ldr	r1, [r4, #28]
  60 004e 1D68     		ldr	r5, [r3]
  61 0050 0243     		orrs	r2, r2, r0
  62 0052 0A43     		orrs	r2, r2, r1
  63 0054 3149     		ldr	r1, .L41
  64 0056 2940     		ands	r1, r1, r5
  65 0058 256A     		ldr	r5, [r4, #32]
  66 005a 2A43     		orrs	r2, r2, r5
  67 005c 0A43     		orrs	r2, r2, r1
  68 005e 616A     		ldr	r1, [r4, #36]
  69 0060 0429     		cmp	r1, #4
  70 0062 24D0     		beq	.L7
  71 0064 1A60     		str	r2, [r3]
  72 0066 5A69     		ldr	r2, [r3, #20]
  73 0068 22F00702 		bic	r2, r2, #7
  74 006c 1143     		orrs	r1, r1, r2
  75              	.L8:
  76 006e D8B2     		uxtb	r0, r3
  77 0070 2B4A     		ldr	r2, .L41+4
  78 0072 5961     		str	r1, [r3, #20]
  79 0074 1038     		subs	r0, r0, #16
  80 0076 A2FB0052 		umull	r5, r2, r2, r0
  81 007a 1209     		lsrs	r2, r2, #4
  82 007c 2949     		ldr	r1, .L41+8
  83 007e 6FF30903 		bfc	r3, #0, #10
  84 0082 895C     		ldrb	r1, [r1, r2]	@ zero_extendqisi2
  85 0084 E165     		str	r1, [r4, #92]
  86 0086 5F28     		cmp	r0, #95
  87 0088 88BF     		it	hi
  88 008a 0433     		addhi	r3, r3, #4
  89 008c 3F22     		movs	r2, #63
  90 008e 8A40     		lsls	r2, r2, r1
  91 0090 A365     		str	r3, [r4, #88]
  92 0092 0020     		movs	r0, #0
  93 0094 9A60     		str	r2, [r3, #8]
  94 0096 0123     		movs	r3, #1
  95 0098 6065     		str	r0, [r4, #84]
  96 009a 84F83530 		strb	r3, [r4, #53]
  97 009e 38BD     		pop	{r3, r4, r5, pc}
  98              	.L38:
  99 00a0 0323     		movs	r3, #3
 100 00a2 2022     		movs	r2, #32
 101 00a4 6265     		str	r2, [r4, #84]
 102 00a6 84F83530 		strb	r3, [r4, #53]
 103 00aa 1846     		mov	r0, r3
 104 00ac 38BD     		pop	{r3, r4, r5, pc}
 105              	.L7:
 106 00ae D4E90B51 		ldrd	r5, r1, [r4, #44]
 107 00b2 2943     		orrs	r1, r1, r5
 108 00b4 1143     		orrs	r1, r1, r2
 109 00b6 1960     		str	r1, [r3]
 110 00b8 5969     		ldr	r1, [r3, #20]
 111 00ba A26A     		ldr	r2, [r4, #40]
 112 00bc 21F00701 		bic	r1, r1, #7
 113 00c0 1143     		orrs	r1, r1, r2
 114 00c2 41F00401 		orr	r1, r1, #4
 115 00c6 002D     		cmp	r5, #0
ARM GAS  /tmp/ccELBfJn.s 			page 3


 116 00c8 D1D0     		beq	.L8
 117 00ca 78B1     		cbz	r0, .L39
 118 00cc B0F5005F 		cmp	r0, #8192
 119 00d0 16D0     		beq	.L40
 120 00d2 022A     		cmp	r2, #2
 121 00d4 03D9     		bls	.L11
 122 00d6 032A     		cmp	r2, #3
 123 00d8 C9D1     		bne	.L8
 124              	.L35:
 125 00da EA01     		lsls	r2, r5, #7
 126 00dc C7D5     		bpl	.L8
 127              	.L11:
 128 00de 4022     		movs	r2, #64
 129 00e0 0123     		movs	r3, #1
 130 00e2 6265     		str	r2, [r4, #84]
 131 00e4 84F83530 		strb	r3, [r4, #53]
 132              	.L2:
 133 00e8 0120     		movs	r0, #1
 134 00ea 38BD     		pop	{r3, r4, r5, pc}
 135              	.L39:
 136 00ec 012A     		cmp	r2, #1
 137 00ee 03D0     		beq	.L13
 138 00f0 32F00202 		bics	r2, r2, #2
 139 00f4 BBD1     		bne	.L8
 140 00f6 F0E7     		b	.L35
 141              	.L13:
 142 00f8 B5F1C07F 		cmp	r5, #25165824
 143 00fc B7D1     		bne	.L8
 144 00fe EEE7     		b	.L11
 145              	.L40:
 146 0100 032A     		cmp	r2, #3
 147 0102 B4D8     		bhi	.L8
 148 0104 01A0     		adr	r0, .L14
 149 0106 50F822F0 		ldr	pc, [r0, r2, lsl #2]
 150 010a 00BF     		.p2align 2
 151              	.L14:
 152 010c DF000000 		.word	.L11+1
 153 0110 DB000000 		.word	.L35+1
 154 0114 DF000000 		.word	.L11+1
 155 0118 F9000000 		.word	.L13+1
 156              		.p2align 1
 157              	.L42:
 158              		.align	2
 159              	.L41:
 160 011c 3F8010F0 		.word	-267354049
 161 0120 ABAAAAAA 		.word	-1431655765
 162 0124 00000000 		.word	flagBitshiftOffset.0
 164              		.section	.text.HAL_DMA_DeInit,"ax",%progbits
 165              		.align	1
 166              		.p2align 2,,3
 167              		.global	HAL_DMA_DeInit
 168              		.syntax unified
 169              		.thumb
 170              		.thumb_func
 172              	HAL_DMA_DeInit:
 173              		@ args = 0, pretend = 0, frame = 0
 174              		@ frame_needed = 0, uses_anonymous_args = 0
ARM GAS  /tmp/ccELBfJn.s 			page 4


 175              		@ link register save eliminated.
 176 0000 0028     		cmp	r0, #0
 177 0002 34D0     		beq	.L46
 178 0004 90F83520 		ldrb	r2, [r0, #53]	@ zero_extendqisi2
 179 0008 022A     		cmp	r2, #2
 180 000a 0346     		mov	r3, r0
 181 000c D0B2     		uxtb	r0, r2
 182 000e 30D0     		beq	.L51
 183 0010 1A68     		ldr	r2, [r3]
 184 0012 1849     		ldr	r1, .L54
 185 0014 D0B2     		uxtb	r0, r2
 186 0016 1038     		subs	r0, r0, #16
 187 0018 30B4     		push	{r4, r5}
 188 001a A1FB0041 		umull	r4, r1, r1, r0
 189 001e 0909     		lsrs	r1, r1, #4
 190 0020 1468     		ldr	r4, [r2]
 191 0022 154D     		ldr	r5, .L54+4
 192 0024 24F00104 		bic	r4, r4, #1
 193 0028 6D5C     		ldrb	r5, [r5, r1]	@ zero_extendqisi2
 194 002a 1460     		str	r4, [r2]
 195 002c 0021     		movs	r1, #0
 196 002e 1160     		str	r1, [r2]
 197 0030 5160     		str	r1, [r2, #4]
 198 0032 9160     		str	r1, [r2, #8]
 199 0034 D160     		str	r1, [r2, #12]
 200 0036 1161     		str	r1, [r2, #16]
 201 0038 2121     		movs	r1, #33
 202 003a 5161     		str	r1, [r2, #20]
 203 003c 5F28     		cmp	r0, #95
 204 003e 6FF30902 		bfc	r2, #0, #10
 205 0042 88BF     		it	hi
 206 0044 0432     		addhi	r2, r2, #4
 207 0046 3F24     		movs	r4, #63
 208 0048 0021     		movs	r1, #0
 209 004a AC40     		lsls	r4, r4, r5
 210 004c DD65     		str	r5, [r3, #92]
 211 004e C3E90F11 		strd	r1, r1, [r3, #60]
 212 0052 C3E91111 		strd	r1, r1, [r3, #68]
 213 0056 C3E91311 		strd	r1, r1, [r3, #76]
 214 005a 9A65     		str	r2, [r3, #88]
 215 005c 9460     		str	r4, [r2, #8]
 216 005e 5965     		str	r1, [r3, #84]
 217 0060 83F83410 		strb	r1, [r3, #52]
 218 0064 83F83510 		strb	r1, [r3, #53]
 219 0068 0846     		mov	r0, r1
 220 006a 30BC     		pop	{r4, r5}
 221 006c 7047     		bx	lr
 222              	.L46:
 223 006e 0120     		movs	r0, #1
 224 0070 7047     		bx	lr
 225              	.L51:
 226 0072 7047     		bx	lr
 227              	.L55:
 228              		.align	2
 229              	.L54:
 230 0074 ABAAAAAA 		.word	-1431655765
 231 0078 00000000 		.word	flagBitshiftOffset.0
ARM GAS  /tmp/ccELBfJn.s 			page 5


 233              		.section	.text.HAL_DMA_Start,"ax",%progbits
 234              		.align	1
 235              		.p2align 2,,3
 236              		.global	HAL_DMA_Start
 237              		.syntax unified
 238              		.thumb
 239              		.thumb_func
 241              	HAL_DMA_Start:
 242              		@ args = 0, pretend = 0, frame = 0
 243              		@ frame_needed = 0, uses_anonymous_args = 0
 244              		@ link register save eliminated.
 245 0000 30B4     		push	{r4, r5}
 246 0002 90F83440 		ldrb	r4, [r0, #52]	@ zero_extendqisi2
 247 0006 012C     		cmp	r4, #1
 248 0008 09D0     		beq	.L57
 249 000a 0124     		movs	r4, #1
 250 000c 80F83440 		strb	r4, [r0, #52]
 251 0010 90F83540 		ldrb	r4, [r0, #53]	@ zero_extendqisi2
 252 0014 012C     		cmp	r4, #1
 253 0016 05D0     		beq	.L66
 254 0018 0023     		movs	r3, #0
 255 001a 80F83430 		strb	r3, [r0, #52]
 256              	.L57:
 257 001e 0220     		movs	r0, #2
 258 0020 30BC     		pop	{r4, r5}
 259 0022 7047     		bx	lr
 260              	.L66:
 261 0024 0224     		movs	r4, #2
 262 0026 80F83540 		strb	r4, [r0, #53]
 263 002a 0024     		movs	r4, #0
 264 002c 4465     		str	r4, [r0, #84]
 265 002e 0468     		ldr	r4, [r0]
 266 0030 8568     		ldr	r5, [r0, #8]
 267 0032 2068     		ldr	r0, [r4]
 268 0034 402D     		cmp	r5, #64
 269 0036 20F48020 		bic	r0, r0, #262144
 270 003a 2060     		str	r0, [r4]
 271 003c 6360     		str	r3, [r4, #4]
 272 003e 0BBF     		itete	eq
 273 0040 A260     		streq	r2, [r4, #8]
 274 0042 A160     		strne	r1, [r4, #8]
 275 0044 E160     		streq	r1, [r4, #12]
 276 0046 E260     		strne	r2, [r4, #12]
 277 0048 2368     		ldr	r3, [r4]
 278 004a 43F00103 		orr	r3, r3, #1
 279 004e 0020     		movs	r0, #0
 280 0050 2360     		str	r3, [r4]
 281 0052 30BC     		pop	{r4, r5}
 282 0054 7047     		bx	lr
 284 0056 00BF     		.section	.text.HAL_DMA_Start_IT,"ax",%progbits
 285              		.align	1
 286              		.p2align 2,,3
 287              		.global	HAL_DMA_Start_IT
 288              		.syntax unified
 289              		.thumb
 290              		.thumb_func
 292              	HAL_DMA_Start_IT:
ARM GAS  /tmp/ccELBfJn.s 			page 6


 293              		@ args = 0, pretend = 0, frame = 0
 294              		@ frame_needed = 0, uses_anonymous_args = 0
 295              		@ link register save eliminated.
 296 0000 70B4     		push	{r4, r5, r6}
 297 0002 90F83440 		ldrb	r4, [r0, #52]	@ zero_extendqisi2
 298 0006 856D     		ldr	r5, [r0, #88]
 299 0008 012C     		cmp	r4, #1
 300 000a 0AD0     		beq	.L68
 301 000c 90F83540 		ldrb	r4, [r0, #53]	@ zero_extendqisi2
 302 0010 4FF0010C 		mov	ip, #1
 303 0014 6445     		cmp	r4, ip
 304 0016 80F834C0 		strb	ip, [r0, #52]
 305 001a 05D0     		beq	.L81
 306 001c 0023     		movs	r3, #0
 307 001e 80F83430 		strb	r3, [r0, #52]
 308              	.L68:
 309 0022 0220     		movs	r0, #2
 310 0024 70BC     		pop	{r4, r5, r6}
 311 0026 7047     		bx	lr
 312              	.L81:
 313 0028 0226     		movs	r6, #2
 314 002a 80F83560 		strb	r6, [r0, #53]
 315 002e 0468     		ldr	r4, [r0]
 316 0030 0026     		movs	r6, #0
 317 0032 4665     		str	r6, [r0, #84]
 318 0034 2668     		ldr	r6, [r4]
 319 0036 26F48026 		bic	r6, r6, #262144
 320 003a 2660     		str	r6, [r4]
 321 003c 6360     		str	r3, [r4, #4]
 322 003e 8368     		ldr	r3, [r0, #8]
 323 0040 402B     		cmp	r3, #64
 324 0042 0EBF     		itee	eq
 325 0044 A260     		streq	r2, [r4, #8]
 326 0046 A160     		strne	r1, [r4, #8]
 327 0048 E260     		strne	r2, [r4, #12]
 328 004a C26D     		ldr	r2, [r0, #92]
 329 004c 08BF     		it	eq
 330 004e E160     		streq	r1, [r4, #12]
 331 0050 3F23     		movs	r3, #63
 332 0052 9340     		lsls	r3, r3, r2
 333 0054 AB60     		str	r3, [r5, #8]
 334 0056 2368     		ldr	r3, [r4]
 335 0058 026C     		ldr	r2, [r0, #64]
 336 005a 43F01603 		orr	r3, r3, #22
 337 005e 2360     		str	r3, [r4]
 338 0060 1AB1     		cbz	r2, .L72
 339 0062 2368     		ldr	r3, [r4]
 340 0064 43F00803 		orr	r3, r3, #8
 341 0068 2360     		str	r3, [r4]
 342              	.L72:
 343 006a 2368     		ldr	r3, [r4]
 344 006c 43F00103 		orr	r3, r3, #1
 345 0070 0020     		movs	r0, #0
 346 0072 2360     		str	r3, [r4]
 347 0074 70BC     		pop	{r4, r5, r6}
 348 0076 7047     		bx	lr
 350              		.section	.text.HAL_DMA_Abort,"ax",%progbits
ARM GAS  /tmp/ccELBfJn.s 			page 7


 351              		.align	1
 352              		.p2align 2,,3
 353              		.global	HAL_DMA_Abort
 354              		.syntax unified
 355              		.thumb
 356              		.thumb_func
 358              	HAL_DMA_Abort:
 359              		@ args = 0, pretend = 0, frame = 0
 360              		@ frame_needed = 0, uses_anonymous_args = 0
 361 0000 70B5     		push	{r4, r5, r6, lr}
 362 0002 0446     		mov	r4, r0
 363 0004 866D     		ldr	r6, [r0, #88]
 364 0006 FFF7FEFF 		bl	HAL_GetTick
 365 000a 94F83530 		ldrb	r3, [r4, #53]	@ zero_extendqisi2
 366 000e 022B     		cmp	r3, #2
 367 0010 06D0     		beq	.L83
 368 0012 8023     		movs	r3, #128
 369 0014 6365     		str	r3, [r4, #84]
 370 0016 0023     		movs	r3, #0
 371 0018 84F83430 		strb	r3, [r4, #52]
 372 001c 0120     		movs	r0, #1
 373 001e 70BD     		pop	{r4, r5, r6, pc}
 374              	.L83:
 375 0020 2368     		ldr	r3, [r4]
 376 0022 1A68     		ldr	r2, [r3]
 377 0024 22F01602 		bic	r2, r2, #22
 378 0028 1A60     		str	r2, [r3]
 379 002a 5A69     		ldr	r2, [r3, #20]
 380 002c 22F08002 		bic	r2, r2, #128
 381 0030 5A61     		str	r2, [r3, #20]
 382 0032 226C     		ldr	r2, [r4, #64]
 383 0034 0546     		mov	r5, r0
 384 0036 42B3     		cbz	r2, .L94
 385              	.L85:
 386 0038 1A68     		ldr	r2, [r3]
 387 003a 22F00802 		bic	r2, r2, #8
 388 003e 1A60     		str	r2, [r3]
 389              	.L86:
 390 0040 1A68     		ldr	r2, [r3]
 391 0042 22F00102 		bic	r2, r2, #1
 392 0046 1A60     		str	r2, [r3]
 393 0048 05E0     		b	.L87
 394              	.L89:
 395 004a FFF7FEFF 		bl	HAL_GetTick
 396 004e 431B     		subs	r3, r0, r5
 397 0050 052B     		cmp	r3, #5
 398 0052 10D8     		bhi	.L95
 399 0054 2368     		ldr	r3, [r4]
 400              	.L87:
 401 0056 1B68     		ldr	r3, [r3]
 402 0058 13F00103 		ands	r3, r3, #1
 403 005c F5D1     		bne	.L89
 404 005e E16D     		ldr	r1, [r4, #92]
 405 0060 3F22     		movs	r2, #63
 406 0062 8A40     		lsls	r2, r2, r1
 407 0064 1846     		mov	r0, r3
 408 0066 0121     		movs	r1, #1
ARM GAS  /tmp/ccELBfJn.s 			page 8


 409 0068 0023     		movs	r3, #0
 410 006a B260     		str	r2, [r6, #8]
 411 006c 84F83510 		strb	r1, [r4, #53]
 412 0070 84F83430 		strb	r3, [r4, #52]
 413 0074 70BD     		pop	{r4, r5, r6, pc}
 414              	.L95:
 415 0076 0323     		movs	r3, #3
 416 0078 2022     		movs	r2, #32
 417 007a 6265     		str	r2, [r4, #84]
 418 007c 1846     		mov	r0, r3
 419 007e 84F83530 		strb	r3, [r4, #53]
 420 0082 0023     		movs	r3, #0
 421 0084 84F83430 		strb	r3, [r4, #52]
 422 0088 70BD     		pop	{r4, r5, r6, pc}
 423              	.L94:
 424 008a A26C     		ldr	r2, [r4, #72]
 425 008c 002A     		cmp	r2, #0
 426 008e D3D1     		bne	.L85
 427 0090 D6E7     		b	.L86
 429 0092 00BF     		.section	.text.HAL_DMA_Abort_IT,"ax",%progbits
 430              		.align	1
 431              		.p2align 2,,3
 432              		.global	HAL_DMA_Abort_IT
 433              		.syntax unified
 434              		.thumb
 435              		.thumb_func
 437              	HAL_DMA_Abort_IT:
 438              		@ args = 0, pretend = 0, frame = 0
 439              		@ frame_needed = 0, uses_anonymous_args = 0
 440              		@ link register save eliminated.
 441 0000 90F83530 		ldrb	r3, [r0, #53]	@ zero_extendqisi2
 442 0004 022B     		cmp	r3, #2
 443 0006 03D0     		beq	.L97
 444 0008 8023     		movs	r3, #128
 445 000a 4365     		str	r3, [r0, #84]
 446 000c 0120     		movs	r0, #1
 447 000e 7047     		bx	lr
 448              	.L97:
 449 0010 0268     		ldr	r2, [r0]
 450 0012 0523     		movs	r3, #5
 451 0014 80F83530 		strb	r3, [r0, #53]
 452 0018 1368     		ldr	r3, [r2]
 453 001a 23F00103 		bic	r3, r3, #1
 454 001e 0020     		movs	r0, #0
 455 0020 1360     		str	r3, [r2]
 456 0022 7047     		bx	lr
 458              		.section	.text.HAL_DMA_PollForTransfer,"ax",%progbits
 459              		.align	1
 460              		.p2align 2,,3
 461              		.global	HAL_DMA_PollForTransfer
 462              		.syntax unified
 463              		.thumb
 464              		.thumb_func
 466              	HAL_DMA_PollForTransfer:
 467              		@ args = 0, pretend = 0, frame = 8
 468              		@ frame_needed = 0, uses_anonymous_args = 0
 469 0000 2DE9F04F 		push	{r4, r5, r6, r7, r8, r9, r10, fp, lr}
ARM GAS  /tmp/ccELBfJn.s 			page 9


 470 0004 0446     		mov	r4, r0
 471 0006 83B0     		sub	sp, sp, #12
 472 0008 1646     		mov	r6, r2
 473 000a 0191     		str	r1, [sp, #4]
 474 000c FFF7FEFF 		bl	HAL_GetTick
 475 0010 94F83530 		ldrb	r3, [r4, #53]	@ zero_extendqisi2
 476 0014 022B     		cmp	r3, #2
 477 0016 08D0     		beq	.L100
 478 0018 8022     		movs	r2, #128
 479 001a 0023     		movs	r3, #0
 480 001c 6265     		str	r2, [r4, #84]
 481 001e 84F83430 		strb	r3, [r4, #52]
 482              	.L101:
 483 0022 0120     		movs	r0, #1
 484              	.L120:
 485 0024 03B0     		add	sp, sp, #12
 486              		@ sp needed
 487 0026 BDE8F08F 		pop	{r4, r5, r6, r7, r8, r9, r10, fp, pc}
 488              	.L100:
 489 002a 2368     		ldr	r3, [r4]
 490 002c 1B68     		ldr	r3, [r3]
 491 002e DD05     		lsls	r5, r3, #23
 492 0030 58D4     		bmi	.L157
 493 0032 019B     		ldr	r3, [sp, #4]
 494 0034 E16D     		ldr	r1, [r4, #92]
 495 0036 8346     		mov	fp, r0
 496 0038 002B     		cmp	r3, #0
 497 003a 57D0     		beq	.L158
 498 003c 4FF0100A 		mov	r10, #16
 499 0040 0AFA01FA 		lsl	r10, r10, r1
 500              	.L104:
 501 0044 A56D     		ldr	r5, [r4, #88]
 502 0046 2B68     		ldr	r3, [r5]
 503 0048 1AEA030F 		tst	r10, r3
 504 004c 38D1     		bne	.L105
 505 004e 701C     		adds	r0, r6, #1
 506 0050 60D0     		beq	.L159
 507 0052 002E     		cmp	r6, #0
 508 0054 4FD0     		beq	.L107
 509 0056 4FF00809 		mov	r9, #8
 510 005a 4FF00108 		mov	r8, #1
 511 005e 0427     		movs	r7, #4
 512 0060 2BE0     		b	.L113
 513              	.L160:
 514 0062 FFF7FEFF 		bl	HAL_GetTick
 515 0066 A0EB0B00 		sub	r0, r0, fp
 516 006a 8642     		cmp	r6, r0
 517 006c 46D3     		bcc	.L109
 518 006e E16D     		ldr	r1, [r4, #92]
 519 0070 2B68     		ldr	r3, [r5]
 520 0072 09FA01FC 		lsl	ip, r9, r1
 521 0076 13EA0C0F 		tst	r3, ip
 522 007a 08FA01F0 		lsl	r0, r8, r1
 523 007e 07FA01F2 		lsl	r2, r7, r1
 524 0082 07D0     		beq	.L110
 525 0084 D4F854E0 		ldr	lr, [r4, #84]
 526 0088 4EF0010E 		orr	lr, lr, #1
ARM GAS  /tmp/ccELBfJn.s 			page 10


 527 008c C4F854E0 		str	lr, [r4, #84]
 528 0090 C5F808C0 		str	ip, [r5, #8]
 529              	.L110:
 530 0094 0342     		tst	r3, r0
 531 0096 06D0     		beq	.L111
 532 0098 D4F854C0 		ldr	ip, [r4, #84]
 533 009c 4CF0020C 		orr	ip, ip, #2
 534 00a0 C4F854C0 		str	ip, [r4, #84]
 535 00a4 A860     		str	r0, [r5, #8]
 536              	.L111:
 537 00a6 1342     		tst	r3, r2
 538 00a8 04D0     		beq	.L112
 539 00aa 606D     		ldr	r0, [r4, #84]
 540 00ac 40F00400 		orr	r0, r0, #4
 541 00b0 6065     		str	r0, [r4, #84]
 542 00b2 AA60     		str	r2, [r5, #8]
 543              	.L112:
 544 00b4 1AEA030F 		tst	r10, r3
 545 00b8 02D1     		bne	.L105
 546              	.L113:
 547 00ba 636D     		ldr	r3, [r4, #84]
 548 00bc DA07     		lsls	r2, r3, #31
 549 00be D0D5     		bpl	.L160
 550              	.L105:
 551 00c0 636D     		ldr	r3, [r4, #84]
 552 00c2 13B1     		cbz	r3, .L119
 553 00c4 636D     		ldr	r3, [r4, #84]
 554 00c6 DB07     		lsls	r3, r3, #31
 555 00c8 4CD4     		bmi	.L161
 556              	.L119:
 557 00ca 0198     		ldr	r0, [sp, #4]
 558 00cc 0028     		cmp	r0, #0
 559 00ce 45D1     		bne	.L121
 560 00d0 3023     		movs	r3, #48
 561 00d2 8B40     		lsls	r3, r3, r1
 562 00d4 0122     		movs	r2, #1
 563 00d6 AB60     		str	r3, [r5, #8]
 564 00d8 84F83520 		strb	r2, [r4, #53]
 565 00dc 84F83400 		strb	r0, [r4, #52]
 566              	.L122:
 567 00e0 0020     		movs	r0, #0
 568 00e2 9FE7     		b	.L120
 569              	.L157:
 570 00e4 4FF48073 		mov	r3, #256
 571 00e8 6365     		str	r3, [r4, #84]
 572 00ea 9AE7     		b	.L101
 573              	.L158:
 574 00ec 4FF0200A 		mov	r10, #32
 575 00f0 0AFA01FA 		lsl	r10, r10, r1
 576 00f4 A6E7     		b	.L104
 577              	.L107:
 578 00f6 636D     		ldr	r3, [r4, #84]
 579 00f8 DA07     		lsls	r2, r3, #31
 580 00fa E1D4     		bmi	.L105
 581              	.L109:
 582 00fc 2021     		movs	r1, #32
 583 00fe 0123     		movs	r3, #1
ARM GAS  /tmp/ccELBfJn.s 			page 11


 584 0100 0022     		movs	r2, #0
 585 0102 0320     		movs	r0, #3
 586 0104 6165     		str	r1, [r4, #84]
 587 0106 84F83420 		strb	r2, [r4, #52]
 588 010a 84F83530 		strb	r3, [r4, #53]
 589 010e 03B0     		add	sp, sp, #12
 590              		@ sp needed
 591 0110 BDE8F08F 		pop	{r4, r5, r6, r7, r8, r9, r10, fp, pc}
 592              	.L159:
 593 0114 0827     		movs	r7, #8
 594 0116 0126     		movs	r6, #1
 595 0118 0420     		movs	r0, #4
 596 011a 8F40     		lsls	r7, r7, r1
 597 011c 8E40     		lsls	r6, r6, r1
 598 011e 8840     		lsls	r0, r0, r1
 599 0120 18E0     		b	.L106
 600              	.L162:
 601 0122 2B68     		ldr	r3, [r5]
 602 0124 1F42     		tst	r7, r3
 603 0126 04D0     		beq	.L115
 604 0128 626D     		ldr	r2, [r4, #84]
 605 012a 42F00102 		orr	r2, r2, #1
 606 012e 6265     		str	r2, [r4, #84]
 607 0130 AF60     		str	r7, [r5, #8]
 608              	.L115:
 609 0132 3342     		tst	r3, r6
 610 0134 04D0     		beq	.L116
 611 0136 626D     		ldr	r2, [r4, #84]
 612 0138 42F00202 		orr	r2, r2, #2
 613 013c 6265     		str	r2, [r4, #84]
 614 013e AE60     		str	r6, [r5, #8]
 615              	.L116:
 616 0140 0342     		tst	r3, r0
 617 0142 04D0     		beq	.L117
 618 0144 626D     		ldr	r2, [r4, #84]
 619 0146 42F00402 		orr	r2, r2, #4
 620 014a 6265     		str	r2, [r4, #84]
 621 014c A860     		str	r0, [r5, #8]
 622              	.L117:
 623 014e 13EA0A0F 		tst	r3, r10
 624 0152 B5D1     		bne	.L105
 625              	.L106:
 626 0154 636D     		ldr	r3, [r4, #84]
 627 0156 DB07     		lsls	r3, r3, #31
 628 0158 B2D4     		bmi	.L105
 629 015a E2E7     		b	.L162
 630              	.L121:
 631 015c 1023     		movs	r3, #16
 632 015e 8B40     		lsls	r3, r3, r1
 633 0160 AB60     		str	r3, [r5, #8]
 634 0162 BDE7     		b	.L122
 635              	.L161:
 636 0164 2046     		mov	r0, r4
 637 0166 FFF7FEFF 		bl	HAL_DMA_Abort
 638 016a E26D     		ldr	r2, [r4, #92]
 639 016c 3023     		movs	r3, #48
 640 016e 9340     		lsls	r3, r3, r2
ARM GAS  /tmp/ccELBfJn.s 			page 12


 641 0170 0121     		movs	r1, #1
 642 0172 0022     		movs	r2, #0
 643 0174 AB60     		str	r3, [r5, #8]
 644 0176 84F83510 		strb	r1, [r4, #53]
 645 017a 84F83420 		strb	r2, [r4, #52]
 646 017e 50E7     		b	.L101
 648              		.section	.text.HAL_DMA_IRQHandler,"ax",%progbits
 649              		.align	1
 650              		.p2align 2,,3
 651              		.global	HAL_DMA_IRQHandler
 652              		.syntax unified
 653              		.thumb
 654              		.thumb_func
 656              	HAL_DMA_IRQHandler:
 657              		@ args = 0, pretend = 0, frame = 8
 658              		@ frame_needed = 0, uses_anonymous_args = 0
 659 0000 F0B5     		push	{r4, r5, r6, r7, lr}
 660 0002 83B0     		sub	sp, sp, #12
 661 0004 674A     		ldr	r2, .L257
 662 0006 876D     		ldr	r7, [r0, #88]
 663 0008 1668     		ldr	r6, [r2]
 664 000a 0023     		movs	r3, #0
 665 000c 0193     		str	r3, [sp, #4]
 666 000e C36D     		ldr	r3, [r0, #92]
 667 0010 3D68     		ldr	r5, [r7]
 668 0012 0822     		movs	r2, #8
 669 0014 9A40     		lsls	r2, r2, r3
 670 0016 2A42     		tst	r2, r5
 671 0018 0446     		mov	r4, r0
 672 001a 03D0     		beq	.L164
 673 001c 0168     		ldr	r1, [r0]
 674 001e 0868     		ldr	r0, [r1]
 675 0020 4007     		lsls	r0, r0, #29
 676 0022 78D4     		bmi	.L248
 677              	.L164:
 678 0024 0122     		movs	r2, #1
 679 0026 9A40     		lsls	r2, r2, r3
 680 0028 2A42     		tst	r2, r5
 681 002a 03D0     		beq	.L165
 682 002c 2168     		ldr	r1, [r4]
 683 002e 4969     		ldr	r1, [r1, #20]
 684 0030 0806     		lsls	r0, r1, #24
 685 0032 6AD4     		bmi	.L249
 686              	.L165:
 687 0034 0422     		movs	r2, #4
 688 0036 9A40     		lsls	r2, r2, r3
 689 0038 2A42     		tst	r2, r5
 690 003a 03D0     		beq	.L166
 691 003c 2168     		ldr	r1, [r4]
 692 003e 0968     		ldr	r1, [r1]
 693 0040 8907     		lsls	r1, r1, #30
 694 0042 5CD4     		bmi	.L250
 695              	.L166:
 696 0044 1022     		movs	r2, #16
 697 0046 9A40     		lsls	r2, r2, r3
 698 0048 2A42     		tst	r2, r5
 699 004a 03D0     		beq	.L168
ARM GAS  /tmp/ccELBfJn.s 			page 13


 700 004c 2168     		ldr	r1, [r4]
 701 004e 0868     		ldr	r0, [r1]
 702 0050 0007     		lsls	r0, r0, #28
 703 0052 41D4     		bmi	.L251
 704              	.L168:
 705 0054 2022     		movs	r2, #32
 706 0056 9A40     		lsls	r2, r2, r3
 707 0058 2A42     		tst	r2, r5
 708 005a 14D0     		beq	.L174
 709 005c 2168     		ldr	r1, [r4]
 710 005e 0868     		ldr	r0, [r1]
 711 0060 C006     		lsls	r0, r0, #27
 712 0062 10D5     		bpl	.L174
 713 0064 BA60     		str	r2, [r7, #8]
 714 0066 94F83520 		ldrb	r2, [r4, #53]	@ zero_extendqisi2
 715 006a 052A     		cmp	r2, #5
 716 006c 63D0     		beq	.L252
 717 006e 0B68     		ldr	r3, [r1]
 718 0070 13F4802F 		tst	r3, #262144
 719 0074 0B68     		ldr	r3, [r1]
 720 0076 7ED0     		beq	.L181
 721 0078 1903     		lsls	r1, r3, #12
 722 007a 40F18980 		bpl	.L253
 723              	.L183:
 724 007e E36B     		ldr	r3, [r4, #60]
 725 0080 0BB1     		cbz	r3, .L174
 726              	.L245:
 727 0082 2046     		mov	r0, r4
 728 0084 9847     		blx	r3
 729              	.L174:
 730 0086 636D     		ldr	r3, [r4, #84]
 731 0088 23B3     		cbz	r3, .L163
 732 008a 636D     		ldr	r3, [r4, #84]
 733 008c DA07     		lsls	r2, r3, #31
 734 008e 1AD5     		bpl	.L185
 735 0090 2268     		ldr	r2, [r4]
 736 0092 4549     		ldr	r1, .L257+4
 737 0094 0523     		movs	r3, #5
 738 0096 84F83530 		strb	r3, [r4, #53]
 739 009a 1368     		ldr	r3, [r2]
 740 009c A1FB0616 		umull	r1, r6, r1, r6
 741 00a0 23F00103 		bic	r3, r3, #1
 742 00a4 B60A     		lsrs	r6, r6, #10
 743 00a6 1360     		str	r3, [r2]
 744 00a8 02E0     		b	.L187
 745              	.L254:
 746 00aa 1368     		ldr	r3, [r2]
 747 00ac DB07     		lsls	r3, r3, #31
 748 00ae 04D5     		bpl	.L186
 749              	.L187:
 750 00b0 019B     		ldr	r3, [sp, #4]
 751 00b2 0133     		adds	r3, r3, #1
 752 00b4 B342     		cmp	r3, r6
 753 00b6 0193     		str	r3, [sp, #4]
 754 00b8 F7D9     		bls	.L254
 755              	.L186:
 756 00ba 0122     		movs	r2, #1
ARM GAS  /tmp/ccELBfJn.s 			page 14


 757 00bc 0023     		movs	r3, #0
 758 00be 84F83520 		strb	r2, [r4, #53]
 759 00c2 84F83430 		strb	r3, [r4, #52]
 760              	.L185:
 761 00c6 E36C     		ldr	r3, [r4, #76]
 762 00c8 23B1     		cbz	r3, .L163
 763 00ca 2046     		mov	r0, r4
 764 00cc 03B0     		add	sp, sp, #12
 765              		@ sp needed
 766 00ce BDE8F040 		pop	{r4, r5, r6, r7, lr}
 767 00d2 1847     		bx	r3	@ indirect register sibling call
 768              	.L163:
 769 00d4 03B0     		add	sp, sp, #12
 770              		@ sp needed
 771 00d6 F0BD     		pop	{r4, r5, r6, r7, pc}
 772              	.L251:
 773 00d8 BA60     		str	r2, [r7, #8]
 774 00da 0A68     		ldr	r2, [r1]
 775 00dc 12F4802F 		tst	r2, #262144
 776 00e0 0A68     		ldr	r2, [r1]
 777 00e2 22D1     		bne	.L255
 778 00e4 D205     		lsls	r2, r2, #23
 779 00e6 03D4     		bmi	.L172
 780 00e8 0A68     		ldr	r2, [r1]
 781 00ea 22F00802 		bic	r2, r2, #8
 782 00ee 0A60     		str	r2, [r1]
 783              	.L172:
 784 00f0 226C     		ldr	r2, [r4, #64]
 785 00f2 002A     		cmp	r2, #0
 786 00f4 AED0     		beq	.L168
 787              	.L244:
 788 00f6 2046     		mov	r0, r4
 789 00f8 9047     		blx	r2
 790 00fa E36D     		ldr	r3, [r4, #92]
 791 00fc AAE7     		b	.L168
 792              	.L250:
 793 00fe BA60     		str	r2, [r7, #8]
 794 0100 626D     		ldr	r2, [r4, #84]
 795 0102 42F00402 		orr	r2, r2, #4
 796 0106 6265     		str	r2, [r4, #84]
 797 0108 9CE7     		b	.L166
 798              	.L249:
 799 010a BA60     		str	r2, [r7, #8]
 800 010c 626D     		ldr	r2, [r4, #84]
 801 010e 42F00202 		orr	r2, r2, #2
 802 0112 6265     		str	r2, [r4, #84]
 803 0114 8EE7     		b	.L165
 804              	.L248:
 805 0116 0868     		ldr	r0, [r1]
 806 0118 20F00400 		bic	r0, r0, #4
 807 011c 0860     		str	r0, [r1]
 808 011e BA60     		str	r2, [r7, #8]
 809 0120 626D     		ldr	r2, [r4, #84]
 810 0122 42F00102 		orr	r2, r2, #1
 811 0126 6265     		str	r2, [r4, #84]
 812 0128 7CE7     		b	.L164
 813              	.L255:
ARM GAS  /tmp/ccELBfJn.s 			page 15


 814 012a 1103     		lsls	r1, r2, #12
 815 012c E0D5     		bpl	.L172
 816 012e A26C     		ldr	r2, [r4, #72]
 817 0130 002A     		cmp	r2, #0
 818 0132 E0D1     		bne	.L244
 819 0134 8EE7     		b	.L168
 820              	.L252:
 821 0136 0A68     		ldr	r2, [r1]
 822 0138 22F01602 		bic	r2, r2, #22
 823 013c 0A60     		str	r2, [r1]
 824 013e 4A69     		ldr	r2, [r1, #20]
 825 0140 22F08002 		bic	r2, r2, #128
 826 0144 4A61     		str	r2, [r1, #20]
 827 0146 226C     		ldr	r2, [r4, #64]
 828 0148 3AB3     		cbz	r2, .L256
 829              	.L177:
 830 014a 0A68     		ldr	r2, [r1]
 831 014c 22F00802 		bic	r2, r2, #8
 832 0150 0A60     		str	r2, [r1]
 833              	.L178:
 834 0152 3F22     		movs	r2, #63
 835 0154 02FA03F3 		lsl	r3, r2, r3
 836 0158 216D     		ldr	r1, [r4, #80]
 837 015a BB60     		str	r3, [r7, #8]
 838 015c 0122     		movs	r2, #1
 839 015e 0023     		movs	r3, #0
 840 0160 84F83520 		strb	r2, [r4, #53]
 841 0164 84F83430 		strb	r3, [r4, #52]
 842 0168 0029     		cmp	r1, #0
 843 016a B3D0     		beq	.L163
 844 016c 2046     		mov	r0, r4
 845 016e 03B0     		add	sp, sp, #12
 846              		@ sp needed
 847 0170 BDE8F040 		pop	{r4, r5, r6, r7, lr}
 848 0174 0847     		bx	r1	@ indirect register sibling call
 849              	.L181:
 850 0176 13F48073 		ands	r3, r3, #256
 851 017a 80D1     		bne	.L183
 852 017c 0A68     		ldr	r2, [r1]
 853 017e 22F01002 		bic	r2, r2, #16
 854 0182 0A60     		str	r2, [r1]
 855 0184 0122     		movs	r2, #1
 856 0186 84F83520 		strb	r2, [r4, #53]
 857 018a 84F83430 		strb	r3, [r4, #52]
 858 018e 76E7     		b	.L183
 859              	.L253:
 860 0190 636C     		ldr	r3, [r4, #68]
 861 0192 002B     		cmp	r3, #0
 862 0194 7FF475AF 		bne	.L245
 863 0198 75E7     		b	.L174
 864              	.L256:
 865 019a A26C     		ldr	r2, [r4, #72]
 866 019c 002A     		cmp	r2, #0
 867 019e D4D1     		bne	.L177
 868 01a0 D7E7     		b	.L178
 869              	.L258:
 870 01a2 00BF     		.align	2
ARM GAS  /tmp/ccELBfJn.s 			page 16


 871              	.L257:
 872 01a4 00000000 		.word	SystemCoreClock
 873 01a8 B5814E1B 		.word	458129845
 875              		.section	.text.HAL_DMA_RegisterCallback,"ax",%progbits
 876              		.align	1
 877              		.p2align 2,,3
 878              		.global	HAL_DMA_RegisterCallback
 879              		.syntax unified
 880              		.thumb
 881              		.thumb_func
 883              	HAL_DMA_RegisterCallback:
 884              		@ args = 0, pretend = 0, frame = 0
 885              		@ frame_needed = 0, uses_anonymous_args = 0
 886              		@ link register save eliminated.
 887 0000 0346     		mov	r3, r0
 888 0002 90F83400 		ldrb	r0, [r0, #52]	@ zero_extendqisi2
 889 0006 0128     		cmp	r0, #1
 890 0008 1ED0     		beq	.L270
 891 000a 93F835C0 		ldrb	ip, [r3, #53]	@ zero_extendqisi2
 892 000e BCF1010F 		cmp	ip, #1
 893 0012 5FFA8CF0 		uxtb	r0, ip
 894 0016 04D0     		beq	.L273
 895 0018 0120     		movs	r0, #1
 896              	.L261:
 897 001a 0022     		movs	r2, #0
 898 001c 83F83420 		strb	r2, [r3, #52]
 899 0020 7047     		bx	lr
 900              	.L273:
 901 0022 0529     		cmp	r1, #5
 902 0024 F9D8     		bhi	.L261
 903 0026 0FF2080C 		adr	ip, .L263
 904 002a 5CF821F0 		ldr	pc, [ip, r1, lsl #2]
 905 002e 00BF     		.p2align 2
 906              	.L263:
 907 0030 59000000 		.word	.L268+1
 908 0034 5D000000 		.word	.L267+1
 909 0038 61000000 		.word	.L266+1
 910 003c 65000000 		.word	.L265+1
 911 0040 69000000 		.word	.L264+1
 912 0044 4D000000 		.word	.L262+1
 913              		.p2align 1
 914              	.L270:
 915 0048 0220     		movs	r0, #2
 916 004a 7047     		bx	lr
 917              	.L262:
 918 004c 1A65     		str	r2, [r3, #80]
 919              	.L269:
 920 004e 0022     		movs	r2, #0
 921 0050 0020     		movs	r0, #0
 922 0052 83F83420 		strb	r2, [r3, #52]
 923 0056 7047     		bx	lr
 924              	.L268:
 925 0058 DA63     		str	r2, [r3, #60]
 926 005a F8E7     		b	.L269
 927              	.L267:
 928 005c 1A64     		str	r2, [r3, #64]
 929 005e F6E7     		b	.L269
ARM GAS  /tmp/ccELBfJn.s 			page 17


 930              	.L266:
 931 0060 5A64     		str	r2, [r3, #68]
 932 0062 F4E7     		b	.L269
 933              	.L265:
 934 0064 9A64     		str	r2, [r3, #72]
 935 0066 F2E7     		b	.L269
 936              	.L264:
 937 0068 DA64     		str	r2, [r3, #76]
 938 006a F0E7     		b	.L269
 940              		.section	.text.HAL_DMA_UnRegisterCallback,"ax",%progbits
 941              		.align	1
 942              		.p2align 2,,3
 943              		.global	HAL_DMA_UnRegisterCallback
 944              		.syntax unified
 945              		.thumb
 946              		.thumb_func
 948              	HAL_DMA_UnRegisterCallback:
 949              		@ args = 0, pretend = 0, frame = 0
 950              		@ frame_needed = 0, uses_anonymous_args = 0
 951              		@ link register save eliminated.
 952 0000 90F83420 		ldrb	r2, [r0, #52]	@ zero_extendqisi2
 953 0004 012A     		cmp	r2, #1
 954 0006 0346     		mov	r3, r0
 955 0008 20D0     		beq	.L286
 956 000a 90F83520 		ldrb	r2, [r0, #53]	@ zero_extendqisi2
 957 000e 4FF0010C 		mov	ip, #1
 958 0012 6245     		cmp	r2, ip
 959 0014 80F834C0 		strb	ip, [r0, #52]
 960 0018 D0B2     		uxtb	r0, r2
 961 001a 04D0     		beq	.L289
 962 001c 6046     		mov	r0, ip
 963              	.L276:
 964 001e 0022     		movs	r2, #0
 965 0020 83F83420 		strb	r2, [r3, #52]
 966 0024 7047     		bx	lr
 967              	.L289:
 968 0026 0629     		cmp	r1, #6
 969 0028 F9D8     		bhi	.L276
 970 002a 01A2     		adr	r2, .L278
 971 002c 52F821F0 		ldr	pc, [r2, r1, lsl #2]
 972              		.p2align 2
 973              	.L278:
 974 0030 69000000 		.word	.L284+1
 975 0034 6F000000 		.word	.L283+1
 976 0038 75000000 		.word	.L282+1
 977 003c 7B000000 		.word	.L281+1
 978 0040 81000000 		.word	.L280+1
 979 0044 87000000 		.word	.L279+1
 980 0048 51000000 		.word	.L277+1
 981              		.p2align 1
 982              	.L286:
 983 004c 0220     		movs	r0, #2
 984 004e 7047     		bx	lr
 985              	.L277:
 986 0050 0022     		movs	r2, #0
 987 0052 C3E90F22 		strd	r2, r2, [r3, #60]
 988 0056 C3E91122 		strd	r2, r2, [r3, #68]
ARM GAS  /tmp/ccELBfJn.s 			page 18


 989 005a C3E91322 		strd	r2, r2, [r3, #76]
 990              	.L285:
 991 005e 0022     		movs	r2, #0
 992 0060 0020     		movs	r0, #0
 993 0062 83F83420 		strb	r2, [r3, #52]
 994 0066 7047     		bx	lr
 995              	.L284:
 996 0068 0022     		movs	r2, #0
 997 006a DA63     		str	r2, [r3, #60]
 998 006c F7E7     		b	.L285
 999              	.L283:
 1000 006e 0022     		movs	r2, #0
 1001 0070 1A64     		str	r2, [r3, #64]
 1002 0072 F4E7     		b	.L285
 1003              	.L282:
 1004 0074 0022     		movs	r2, #0
 1005 0076 5A64     		str	r2, [r3, #68]
 1006 0078 F1E7     		b	.L285
 1007              	.L281:
 1008 007a 0022     		movs	r2, #0
 1009 007c 9A64     		str	r2, [r3, #72]
 1010 007e EEE7     		b	.L285
 1011              	.L280:
 1012 0080 0022     		movs	r2, #0
 1013 0082 DA64     		str	r2, [r3, #76]
 1014 0084 EBE7     		b	.L285
 1015              	.L279:
 1016 0086 0022     		movs	r2, #0
 1017 0088 1A65     		str	r2, [r3, #80]
 1018 008a E8E7     		b	.L285
 1020              		.section	.text.HAL_DMA_GetState,"ax",%progbits
 1021              		.align	1
 1022              		.p2align 2,,3
 1023              		.global	HAL_DMA_GetState
 1024              		.syntax unified
 1025              		.thumb
 1026              		.thumb_func
 1028              	HAL_DMA_GetState:
 1029              		@ args = 0, pretend = 0, frame = 0
 1030              		@ frame_needed = 0, uses_anonymous_args = 0
 1031              		@ link register save eliminated.
 1032 0000 90F83500 		ldrb	r0, [r0, #53]	@ zero_extendqisi2
 1033 0004 7047     		bx	lr
 1035 0006 00BF     		.section	.text.HAL_DMA_GetError,"ax",%progbits
 1036              		.align	1
 1037              		.p2align 2,,3
 1038              		.global	HAL_DMA_GetError
 1039              		.syntax unified
 1040              		.thumb
 1041              		.thumb_func
 1043              	HAL_DMA_GetError:
 1044              		@ args = 0, pretend = 0, frame = 0
 1045              		@ frame_needed = 0, uses_anonymous_args = 0
 1046              		@ link register save eliminated.
 1047 0000 406D     		ldr	r0, [r0, #84]
 1048 0002 7047     		bx	lr
 1050              		.section	.rodata.flagBitshiftOffset.0,"a"
ARM GAS  /tmp/ccELBfJn.s 			page 19


 1051              		.align	2
 1054              	flagBitshiftOffset.0:
 1055 0000 00061016 		.ascii	"\000\006\020\026\000\006\020\026"
 1055      00061016 
 1056              		.ident	"GCC: (Arch Repository) 14.1.0"
ARM GAS  /tmp/ccELBfJn.s 			page 20

